ARM GAS  C:\Users\agila\AppData\Local\Temp\cc0g3KGj.s 			page 1


   1              		.syntax unified
   2              		.cpu cortex-m3
   3              		.fpu softvfp
   4              		.eabi_attribute 20, 1
   5              		.eabi_attribute 21, 1
   6              		.eabi_attribute 23, 3
   7              		.eabi_attribute 24, 1
   8              		.eabi_attribute 25, 1
   9              		.eabi_attribute 26, 1
  10              		.eabi_attribute 30, 1
  11              		.eabi_attribute 34, 1
  12              		.eabi_attribute 18, 4
  13              		.thumb
  14              		.syntax unified
  15              		.file	"ArcadianLight.c"
  16              		.text
  17              	.Ltext0:
  18              		.cfi_sections	.debug_frame
  19              		.section	.text.AL_fader,"ax",%progbits
  20              		.align	2
  21              		.global	AL_fader
  22              		.thumb
  23              		.thumb_func
  24              		.type	AL_fader, %function
  25              	AL_fader:
  26              	.LFB111:
  27              		.file 1 "source\\asw\\ArcadianLight.c"
   1:source\asw/ArcadianLight.c **** /**
   2:source\asw/ArcadianLight.c **** * \file <ReactionGame.c>
   3:source\asw/ArcadianLight.c **** * \author <AGILAN V S>
   4:source\asw/ArcadianLight.c **** * \date <26-11-2025>
   5:source\asw/ArcadianLight.c **** *
   6:source\asw/ArcadianLight.c **** * \brief <Symbolic File name>   // ???
   7:source\asw/ArcadianLight.c **** *
   8:source\asw/ArcadianLight.c **** * \copyright Copyright ©2016
   9:source\asw/ArcadianLight.c **** * Department of electrical engineering and information technology, Hochschule Darmstadt - Universit
  10:source\asw/ArcadianLight.c **** * Permission to use, copy, modify, and distribute this software and its documentation for education
  11:source\asw/ArcadianLight.c **** * (unless permitted by h_da) and official h_da projects, is hereby granted for enrolled students of
  12:source\asw/ArcadianLight.c **** * this paragraph and the following paragraph appear in all copies, modifications, and distributions
  13:source\asw/ArcadianLight.c **** * Contact Prof.Dr.-Ing. Peter Fromm, peter.fromm@h-da.de, Birkenweg 8 64295 Darmstadt - GERMANY for
  14:source\asw/ArcadianLight.c **** *
  15:source\asw/ArcadianLight.c **** * \warning This software is a PROTOTYPE version and is not designed or intended for use in producti
  16:source\asw/ArcadianLight.c **** * The user represents and warrants that it will NOT use or redistribute the Software for such purpo
  17:source\asw/ArcadianLight.c **** * This prototype is for research purposes only. This software is provided "AS IS," without a warran
  18:source\asw/ArcadianLight.c **** */
  19:source\asw/ArcadianLight.c **** 
  20:source\asw/ArcadianLight.c **** /*****************************************************************************/
  21:source\asw/ArcadianLight.c **** /* Include files                                                             */
  22:source\asw/ArcadianLight.c **** /*****************************************************************************/
  23:source\asw/ArcadianLight.c **** #include <stdio.h>
  24:source\asw/ArcadianLight.c **** #include <string.h>
  25:source\asw/ArcadianLight.c **** #include "project.h"
  26:source\asw/ArcadianLight.c **** #include "global.h"
  27:source\asw/ArcadianLight.c **** #include "led.h"
  28:source\asw/ArcadianLight.c **** 
  29:source\asw/ArcadianLight.c **** #include "ArcadianLight.h"
  30:source\asw/ArcadianLight.c **** 
ARM GAS  C:\Users\agila\AppData\Local\Temp\cc0g3KGj.s 			page 2


  31:source\asw/ArcadianLight.c **** /*****************************************************************************/
  32:source\asw/ArcadianLight.c **** /* Local pre-processor symbols/macros ('#define')                            */
  33:source\asw/ArcadianLight.c **** /*****************************************************************************/ 
  34:source\asw/ArcadianLight.c **** 
  35:source\asw/ArcadianLight.c **** /*****************************************************************************/
  36:source\asw/ArcadianLight.c **** /* Global variable definitions (declared in header file with 'extern')       */
  37:source\asw/ArcadianLight.c **** /*****************************************************************************/
  38:source\asw/ArcadianLight.c **** const RG_Glow_t RG_glowtable[] = {
  39:source\asw/ArcadianLight.c ****     //Red Green Blue TimeInMS
  40:source\asw/ArcadianLight.c ****     {255, 0, 0, 500},
  41:source\asw/ArcadianLight.c ****     {0, 255, 0, 500},
  42:source\asw/ArcadianLight.c ****     {0, 0, 255, 500},
  43:source\asw/ArcadianLight.c ****     {0, 0, 0, 100},
  44:source\asw/ArcadianLight.c ****     {255, 255, 255, 100},
  45:source\asw/ArcadianLight.c ****     {0, 0, 0, 100},
  46:source\asw/ArcadianLight.c ****     {255, 255, 255, 100},
  47:source\asw/ArcadianLight.c ****     {0, 0, 0, 100},
  48:source\asw/ArcadianLight.c ****     {255, 255, 255, 100}
  49:source\asw/ArcadianLight.c **** };
  50:source\asw/ArcadianLight.c **** 
  51:source\asw/ArcadianLight.c **** /*****************************************************************************/
  52:source\asw/ArcadianLight.c **** /* Local type definitions ('typedef')                                        */
  53:source\asw/ArcadianLight.c **** /*****************************************************************************/
  54:source\asw/ArcadianLight.c **** 
  55:source\asw/ArcadianLight.c **** /*****************************************************************************/
  56:source\asw/ArcadianLight.c **** /* Local variable definitions ('static')                                     */
  57:source\asw/ArcadianLight.c **** /*****************************************************************************/ 
  58:source\asw/ArcadianLight.c **** 
  59:source\asw/ArcadianLight.c **** /*****************************************************************************/
  60:source\asw/ArcadianLight.c **** /* Local function prototypes ('static')                                      */
  61:source\asw/ArcadianLight.c **** /*****************************************************************************/
  62:source\asw/ArcadianLight.c **** 
  63:source\asw/ArcadianLight.c **** /*****************************************************************************/
  64:source\asw/ArcadianLight.c **** /* Function implementation - global ('extern') and local ('static')          */
  65:source\asw/ArcadianLight.c **** /*****************************************************************************/
  66:source\asw/ArcadianLight.c **** 
  67:source\asw/ArcadianLight.c **** /********************************************************************************
  68:source\asw/ArcadianLight.c ****  * API Definitions
  69:source\asw/ArcadianLight.c ****  ********************************************************************************/
  70:source\asw/ArcadianLight.c **** 
  71:source\asw/ArcadianLight.c **** RC_t AL_fader(void)
  72:source\asw/ArcadianLight.c **** {
  28              		.loc 1 72 0
  29              		.cfi_startproc
  30              		@ args = 0, pretend = 0, frame = 0
  31              		@ frame_needed = 0, uses_anonymous_args = 0
  32 0000 10B5     		push	{r4, lr}
  33              		.cfi_def_cfa_offset 8
  34              		.cfi_offset 4, -8
  35              		.cfi_offset 14, -4
  36              	.LVL0:
  37              	.LBB2:
  73:source\asw/ArcadianLight.c ****     RC_t res = RC_SUCCESS;
  74:source\asw/ArcadianLight.c ****     for (int phase = 0; phase < 4*256; phase++) 
  38              		.loc 1 74 0
  39 0002 0024     		movs	r4, #0
  40 0004 2EE0     		b	.L2
ARM GAS  C:\Users\agila\AppData\Local\Temp\cc0g3KGj.s 			page 3


  41              	.LVL1:
  42              	.L8:
  43              	.LBB3:
  75:source\asw/ArcadianLight.c ****     {
  76:source\asw/ArcadianLight.c ****         uint16_t value = phase % 256;
  44              		.loc 1 76 0
  45 0006 1A48     		ldr	r0, .L10
  46 0008 2040     		ands	r0, r0, r4
  47 000a 0028     		cmp	r0, #0
  48 000c 03DA     		bge	.L3
  49 000e 0138     		subs	r0, r0, #1
  50 0010 60F0FF00 		orn	r0, r0, #255
  51 0014 0130     		adds	r0, r0, #1
  52              	.L3:
  53 0016 80B2     		uxth	r0, r0
  54              	.LVL2:
  77:source\asw/ArcadianLight.c ****         if (phase < 256) {
  55              		.loc 1 77 0
  56 0018 FF2C     		cmp	r4, #255
  57 001a 04DC     		bgt	.L4
  78:source\asw/ArcadianLight.c ****             LED_PWM_Set(value, 0, 0);               // RED in
  58              		.loc 1 78 0
  59 001c 0022     		movs	r2, #0
  60 001e 1146     		mov	r1, r2
  61 0020 FFF7FEFF 		bl	LED_PWM_Set
  62              	.LVL3:
  63 0024 1AE0     		b	.L5
  64              	.LVL4:
  65              	.L4:
  79:source\asw/ArcadianLight.c ****         } else if (phase < 512) {
  66              		.loc 1 79 0
  67 0026 B4F5007F 		cmp	r4, #512
  68 002a 07DA     		bge	.L6
  80:source\asw/ArcadianLight.c ****             LED_PWM_Set((255 - value), value, 0);   // RED out YELLOW in
  69              		.loc 1 80 0
  70 002c C0F1FF03 		rsb	r3, r0, #255
  71 0030 0022     		movs	r2, #0
  72 0032 0146     		mov	r1, r0
  73 0034 98B2     		uxth	r0, r3
  74              	.LVL5:
  75 0036 FFF7FEFF 		bl	LED_PWM_Set
  76              	.LVL6:
  77 003a 0FE0     		b	.L5
  78              	.LVL7:
  79              	.L6:
  81:source\asw/ArcadianLight.c ****         } else if (phase < 768) {
  80              		.loc 1 81 0
  81 003c B4F5407F 		cmp	r4, #768
  82 0040 07DA     		bge	.L7
  82:source\asw/ArcadianLight.c ****             LED_PWM_Set(0, (255 - value), value);   // YELLOW out GREEN in
  83              		.loc 1 82 0
  84 0042 C0F1FF01 		rsb	r1, r0, #255
  85 0046 0246     		mov	r2, r0
  86 0048 89B2     		uxth	r1, r1
  87 004a 0020     		movs	r0, #0
  88              	.LVL8:
  89 004c FFF7FEFF 		bl	LED_PWM_Set
ARM GAS  C:\Users\agila\AppData\Local\Temp\cc0g3KGj.s 			page 4


  90              	.LVL9:
  91 0050 04E0     		b	.L5
  92              	.LVL10:
  93              	.L7:
  83:source\asw/ArcadianLight.c ****         } else {
  84:source\asw/ArcadianLight.c ****             LED_PWM_Set(0, 0, value);               // GREEN out
  94              		.loc 1 84 0
  95 0052 0246     		mov	r2, r0
  96 0054 0021     		movs	r1, #0
  97 0056 0846     		mov	r0, r1
  98              	.LVL11:
  99 0058 FFF7FEFF 		bl	LED_PWM_Set
 100              	.LVL12:
 101              	.L5:
  85:source\asw/ArcadianLight.c ****         }
  86:source\asw/ArcadianLight.c ****         CyDelay(1);
 102              		.loc 1 86 0 discriminator 2
 103 005c 0120     		movs	r0, #1
 104 005e FFF7FEFF 		bl	CyDelay
 105              	.LVL13:
 106              	.LBE3:
  74:source\asw/ArcadianLight.c ****     {
 107              		.loc 1 74 0 discriminator 2
 108 0062 0134     		adds	r4, r4, #1
 109              	.LVL14:
 110              	.L2:
  74:source\asw/ArcadianLight.c ****     {
 111              		.loc 1 74 0 is_stmt 0 discriminator 1
 112 0064 B4F5806F 		cmp	r4, #1024
 113 0068 CDDB     		blt	.L8
 114              	.LBE2:
  87:source\asw/ArcadianLight.c ****     }
  88:source\asw/ArcadianLight.c ****     return res;
  89:source\asw/ArcadianLight.c **** }
 115              		.loc 1 89 0 is_stmt 1
 116 006a 0020     		movs	r0, #0
 117 006c 10BD     		pop	{r4, pc}
 118              	.LVL15:
 119              	.L11:
 120 006e 00BF     		.align	2
 121              	.L10:
 122 0070 FF000080 		.word	-2147483393
 123              		.cfi_endproc
 124              	.LFE111:
 125              		.size	AL_fader, .-AL_fader
 126              		.section	.text.AL_glower,"ax",%progbits
 127              		.align	2
 128              		.global	AL_glower
 129              		.thumb
 130              		.thumb_func
 131              		.type	AL_glower, %function
 132              	AL_glower:
 133              	.LFB112:
  90:source\asw/ArcadianLight.c **** 
  91:source\asw/ArcadianLight.c **** RC_t AL_glower(void)
  92:source\asw/ArcadianLight.c **** {
 134              		.loc 1 92 0
ARM GAS  C:\Users\agila\AppData\Local\Temp\cc0g3KGj.s 			page 5


 135              		.cfi_startproc
 136              		@ args = 0, pretend = 0, frame = 0
 137              		@ frame_needed = 0, uses_anonymous_args = 0
 138 0000 70B5     		push	{r4, r5, r6, lr}
 139              		.cfi_def_cfa_offset 16
 140              		.cfi_offset 4, -16
 141              		.cfi_offset 5, -12
 142              		.cfi_offset 6, -8
 143              		.cfi_offset 14, -4
 144              	.LVL16:
 145              	.LBB4:
  93:source\asw/ArcadianLight.c ****     RC_t res = RC_SUCCESS;
  94:source\asw/ArcadianLight.c **** 
  95:source\asw/ArcadianLight.c ****     for (uint8_t i = 0; i < (sizeof(RG_glowtable) / sizeof(RG_Glow_t)); ++i)
 146              		.loc 1 95 0
 147 0002 0024     		movs	r4, #0
 148 0004 11E0     		b	.L13
 149              	.LVL17:
 150              	.L14:
  96:source\asw/ArcadianLight.c ****     {
  97:source\asw/ArcadianLight.c ****         LED_RGB_Set(RG_glowtable[i].al_red, RG_glowtable[i].al_green, RG_glowtable[i].al_blue);
 151              		.loc 1 97 0 discriminator 3
 152 0006 0B4E     		ldr	r6, .L16
 153 0008 6500     		lsls	r5, r4, #1
 154 000a 2A19     		adds	r2, r5, r4
 155 000c 5300     		lsls	r3, r2, #1
 156 000e F118     		adds	r1, r6, r3
 157 0010 8A78     		ldrb	r2, [r1, #2]	@ zero_extendqisi2
 158 0012 4978     		ldrb	r1, [r1, #1]	@ zero_extendqisi2
 159 0014 F05C     		ldrb	r0, [r6, r3]	@ zero_extendqisi2
 160 0016 FFF7FEFF 		bl	LED_RGB_Set
 161              	.LVL18:
  98:source\asw/ArcadianLight.c ****         CyDelay(RG_glowtable[i].al_duration);
 162              		.loc 1 98 0 discriminator 3
 163 001a 2544     		add	r5, r5, r4
 164 001c 6B00     		lsls	r3, r5, #1
 165 001e 3344     		add	r3, r3, r6
 166 0020 9888     		ldrh	r0, [r3, #4]
 167 0022 FFF7FEFF 		bl	CyDelay
 168              	.LVL19:
  95:source\asw/ArcadianLight.c ****     {
 169              		.loc 1 95 0 discriminator 3
 170 0026 0134     		adds	r4, r4, #1
 171              	.LVL20:
 172 0028 E4B2     		uxtb	r4, r4
 173              	.LVL21:
 174              	.L13:
  95:source\asw/ArcadianLight.c ****     {
 175              		.loc 1 95 0 is_stmt 0 discriminator 1
 176 002a 082C     		cmp	r4, #8
 177 002c EBD9     		bls	.L14
 178              	.LBE4:
  99:source\asw/ArcadianLight.c ****     }
 100:source\asw/ArcadianLight.c ****     return res;
 101:source\asw/ArcadianLight.c **** }
 179              		.loc 1 101 0 is_stmt 1
 180 002e 0020     		movs	r0, #0
ARM GAS  C:\Users\agila\AppData\Local\Temp\cc0g3KGj.s 			page 6


 181 0030 70BD     		pop	{r4, r5, r6, pc}
 182              	.LVL22:
 183              	.L17:
 184 0032 00BF     		.align	2
 185              	.L16:
 186 0034 00000000 		.word	.LANCHOR0
 187              		.cfi_endproc
 188              	.LFE112:
 189              		.size	AL_glower, .-AL_glower
 190              		.global	RG_glowtable
 191              		.section	.rodata
 192              		.align	2
 193              		.set	.LANCHOR0,. + 0
 194              		.type	RG_glowtable, %object
 195              		.size	RG_glowtable, 54
 196              	RG_glowtable:
 197 0000 FF       		.byte	-1
 198 0001 00       		.byte	0
 199 0002 00       		.byte	0
 200 0003 00       		.space	1
 201 0004 F401     		.short	500
 202 0006 00       		.byte	0
 203 0007 FF       		.byte	-1
 204 0008 00       		.byte	0
 205 0009 00       		.space	1
 206 000a F401     		.short	500
 207 000c 00       		.byte	0
 208 000d 00       		.byte	0
 209 000e FF       		.byte	-1
 210 000f 00       		.space	1
 211 0010 F401     		.short	500
 212 0012 00       		.byte	0
 213 0013 00       		.byte	0
 214 0014 00       		.byte	0
 215 0015 00       		.space	1
 216 0016 6400     		.short	100
 217 0018 FF       		.byte	-1
 218 0019 FF       		.byte	-1
 219 001a FF       		.byte	-1
 220 001b 00       		.space	1
 221 001c 6400     		.short	100
 222 001e 00       		.byte	0
 223 001f 00       		.byte	0
 224 0020 00       		.byte	0
 225 0021 00       		.space	1
 226 0022 6400     		.short	100
 227 0024 FF       		.byte	-1
 228 0025 FF       		.byte	-1
 229 0026 FF       		.byte	-1
 230 0027 00       		.space	1
 231 0028 6400     		.short	100
 232 002a 00       		.byte	0
 233 002b 00       		.byte	0
 234 002c 00       		.byte	0
 235 002d 00       		.space	1
 236 002e 6400     		.short	100
 237 0030 FF       		.byte	-1
ARM GAS  C:\Users\agila\AppData\Local\Temp\cc0g3KGj.s 			page 7


 238 0031 FF       		.byte	-1
 239 0032 FF       		.byte	-1
 240 0033 00       		.space	1
 241 0034 6400     		.short	100
 242              		.text
 243              	.Letext0:
 244              		.file 2 "c:\\h_da softwares & projects\\psoc creator\\4.4\\psoc creator\\import\\gnu\\arm\\5.4.1\\
 245              		.file 3 "c:\\h_da softwares & projects\\psoc creator\\4.4\\psoc creator\\import\\gnu\\arm\\5.4.1\\
 246              		.file 4 "Generated_Source\\PSoC5/ErikaOS_common_ee_types.inc"
 247              		.file 5 "Generated_Source\\PSoC5/ErikaOS_cortex_mx_ee_cpu.inc"
 248              		.file 6 ".\\source\\bsw/global.h"
 249              		.file 7 "source\\asw\\ArcadianLight.h"
 250              		.file 8 "Generated_Source\\PSoC5/ErikaOS_ee_oo_intfunc.inc"
 251              		.file 9 "Generated_Source\\PSoC5/ErikaOS_cortex_mx_ee_context.inc"
 252              		.file 10 "Generated_Source\\PSoC5/ErikaOS_common_ee_primitives.inc"
 253              		.file 11 "Generated_Source\\PSoC5/core_cm3.h"
 254              		.file 12 ".\\source\\bsw\\LabBoard/led.h"
 255              		.file 13 "Generated_Source\\PSoC5/CyLib.h"