ARM GAS  C:\Users\agila\AppData\Local\Temp\ccxz9sa2.s 			page 1


   1              		.syntax unified
   2              		.cpu cortex-m3
   3              		.fpu softvfp
   4              		.eabi_attribute 20, 1
   5              		.eabi_attribute 21, 1
   6              		.eabi_attribute 23, 3
   7              		.eabi_attribute 24, 1
   8              		.eabi_attribute 25, 1
   9              		.eabi_attribute 26, 1
  10              		.eabi_attribute 30, 1
  11              		.eabi_attribute 34, 1
  12              		.eabi_attribute 18, 4
  13              		.thumb
  14              		.syntax unified
  15              		.file	"led.c"
  16              		.text
  17              	.Ltext0:
  18              		.cfi_sections	.debug_frame
  19              		.section	.text.LED_Set,"ax",%progbits
  20              		.align	2
  21              		.global	LED_Set
  22              		.thumb
  23              		.thumb_func
  24              		.type	LED_Set, %function
  25              	LED_Set:
  26              	.LFB111:
  27              		.file 1 "source\\bsw\\LabBoard\\led.c"
   1:source\bsw\LabBoard/led.c **** /**
   2:source\bsw\LabBoard/led.c **** * \file <filename>
   3:source\bsw\LabBoard/led.c **** * \author <author-name>
   4:source\bsw\LabBoard/led.c **** * \date <date>
   5:source\bsw\LabBoard/led.c **** *
   6:source\bsw\LabBoard/led.c **** * \brief <Symbolic File name>
   7:source\bsw\LabBoard/led.c **** *
   8:source\bsw\LabBoard/led.c **** * \copyright Copyright ©2016
   9:source\bsw\LabBoard/led.c **** * Department of electrical engineering and information technology, Hochschule Darmstadt - Universit
  10:source\bsw\LabBoard/led.c **** * Permission to use, copy, modify, and distribute this software and its documentation for education
  11:source\bsw\LabBoard/led.c **** * (unless permitted by h_da) and official h_da projects, is hereby granted for enrolled students of
  12:source\bsw\LabBoard/led.c **** * this paragraph and the following paragraph appear in all copies, modifications, and distributions
  13:source\bsw\LabBoard/led.c **** * Contact Prof.Dr.-Ing. Peter Fromm, peter.fromm@h-da.de, Birkenweg 8 64295 Darmstadt - GERMANY for
  14:source\bsw\LabBoard/led.c **** *
  15:source\bsw\LabBoard/led.c **** * \warning This software is a PROTOTYPE version and is not designed or intended for use in producti
  16:source\bsw\LabBoard/led.c **** * The user represents and warrants that it will NOT use or redistribute the Software for such purpo
  17:source\bsw\LabBoard/led.c **** * This prototype is for research purposes only. This software is provided "AS IS," without a warran
  18:source\bsw\LabBoard/led.c **** */
  19:source\bsw\LabBoard/led.c **** 
  20:source\bsw\LabBoard/led.c **** /*****************************************************************************/
  21:source\bsw\LabBoard/led.c **** /* Include files                                                             */
  22:source\bsw\LabBoard/led.c **** /*****************************************************************************/
  23:source\bsw\LabBoard/led.c **** 
  24:source\bsw\LabBoard/led.c **** #include "project.h"
  25:source\bsw\LabBoard/led.c **** #include "led.h"
  26:source\bsw\LabBoard/led.c **** 
  27:source\bsw\LabBoard/led.c **** 
  28:source\bsw\LabBoard/led.c **** /*****************************************************************************/
  29:source\bsw\LabBoard/led.c **** /* Local pre-processor symbols/macros ('#define')                            */
  30:source\bsw\LabBoard/led.c **** /*****************************************************************************/
ARM GAS  C:\Users\agila\AppData\Local\Temp\ccxz9sa2.s 			page 2


  31:source\bsw\LabBoard/led.c **** 
  32:source\bsw\LabBoard/led.c **** /*****************************************************************************/
  33:source\bsw\LabBoard/led.c **** /* Global variable definitions (declared in header file with 'extern')       */
  34:source\bsw\LabBoard/led.c **** /*****************************************************************************/
  35:source\bsw\LabBoard/led.c **** 
  36:source\bsw\LabBoard/led.c **** /*****************************************************************************/
  37:source\bsw\LabBoard/led.c **** /* Local type definitions ('typedef')                                        */
  38:source\bsw\LabBoard/led.c **** /*****************************************************************************/
  39:source\bsw\LabBoard/led.c **** 
  40:source\bsw\LabBoard/led.c **** 
  41:source\bsw\LabBoard/led.c **** 
  42:source\bsw\LabBoard/led.c **** /*****************************************************************************/
  43:source\bsw\LabBoard/led.c **** /* Local variable definitions ('static')                                     */
  44:source\bsw\LabBoard/led.c **** /*****************************************************************************/
  45:source\bsw\LabBoard/led.c **** 
  46:source\bsw\LabBoard/led.c **** 
  47:source\bsw\LabBoard/led.c **** static LED_ONOFF_t LED__state[LED_ALL] = {LED_OFF, LED_OFF, LED_OFF}; /**< On/Off State of the LED,
  48:source\bsw\LabBoard/led.c **** 
  49:source\bsw\LabBoard/led.c **** const static uint16 LED__Pulse_Width[256] = {
  50:source\bsw\LabBoard/led.c ****     0, 1, 1, 1, 1, 1, 1, 1, 1, 2, 2, 2, 2, 2, 2, 2, 2, 2, 2, 2, 2, 3,
  51:source\bsw\LabBoard/led.c ****     3, 3, 3, 3, 3, 3, 4, 4, 4, 4, 4, 4, 5, 5, 5, 5, 5, 6, 6, 6, 6, 7,
  52:source\bsw\LabBoard/led.c ****     7, 7, 8, 8, 8, 9, 9, 10, 10, 10, 11, 11, 12, 12, 13, 13, 14, 15,
  53:source\bsw\LabBoard/led.c ****     15, 16, 17, 17, 18, 19, 20, 21, 22, 23, 24, 25, 26, 27, 28, 29,
  54:source\bsw\LabBoard/led.c ****     31, 32, 33, 35, 36, 38, 40, 41, 43, 45, 47, 49, 52, 54, 56, 59,
  55:source\bsw\LabBoard/led.c ****     61, 64, 67, 70, 73, 76, 79, 83, 87, 91, 95, 99, 103, 108, 112,
  56:source\bsw\LabBoard/led.c ****     117, 123, 128, 134, 140, 146, 152, 159, 166, 173, 181, 189, 197,
  57:source\bsw\LabBoard/led.c ****     206, 215, 225, 235, 245, 256, 267, 279, 292, 304, 318, 332, 347,
  58:source\bsw\LabBoard/led.c ****     362, 378, 395, 412, 431, 450, 470, 490, 512, 535, 558, 583, 609,
  59:source\bsw\LabBoard/led.c ****     636, 664, 693, 724, 756, 790, 825, 861, 899, 939, 981, 1024, 1069,
  60:source\bsw\LabBoard/led.c ****     1117, 1166, 1218, 1272, 1328, 1387, 1448, 1512, 1579, 1649, 1722,
  61:source\bsw\LabBoard/led.c ****     1798, 1878, 1961, 2048, 2139, 2233, 2332, 2435, 2543, 2656, 2773,
  62:source\bsw\LabBoard/led.c ****     2896, 3025, 3158, 3298, 3444, 3597, 3756, 3922, 4096, 4277, 4467,
  63:source\bsw\LabBoard/led.c ****     4664, 4871, 5087, 5312, 5547, 5793, 6049, 6317, 6596, 6889, 7194,
  64:source\bsw\LabBoard/led.c ****     7512, 7845, 8192, 8555, 8933, 9329, 9742, 10173, 10624, 11094,
  65:source\bsw\LabBoard/led.c ****     11585, 12098, 12634, 13193, 13777, 14387, 15024, 15689, 16384,
  66:source\bsw\LabBoard/led.c ****     17109, 17867, 18658, 19484, 20346, 21247, 22188, 23170, 24196,
  67:source\bsw\LabBoard/led.c ****     25267, 26386, 27554, 28774, 30048, 31378, 32768, 34218, 35733,
  68:source\bsw\LabBoard/led.c ****     37315, 38967, 40693, 42494, 44376, 46340, 48392, 50534, 52772,
  69:source\bsw\LabBoard/led.c ****     55108, 57548, 60096, 62757, 65535
  70:source\bsw\LabBoard/led.c **** };
  71:source\bsw\LabBoard/led.c **** 
  72:source\bsw\LabBoard/led.c **** /*****************************************************************************/
  73:source\bsw\LabBoard/led.c **** /* Local function prototypes ('static')                                      */
  74:source\bsw\LabBoard/led.c **** /*****************************************************************************/
  75:source\bsw\LabBoard/led.c **** 
  76:source\bsw\LabBoard/led.c **** /**
  77:source\bsw\LabBoard/led.c ****  * Inverts the parameter
  78:source\bsw\LabBoard/led.c ****  * @param LED_ONOFF_t ledOnOff - Value to be inverted
  79:source\bsw\LabBoard/led.c ****  * @return inverted parameter
  80:source\bsw\LabBoard/led.c ****  */
  81:source\bsw\LabBoard/led.c **** static inline LED_ONOFF_t LED__toggleValue(LED_ONOFF_t ledOnOff);
  82:source\bsw\LabBoard/led.c **** 
  83:source\bsw\LabBoard/led.c **** 
  84:source\bsw\LabBoard/led.c **** /*****************************************************************************/
  85:source\bsw\LabBoard/led.c **** /* Function implementation - global ('extern') and local ('static')          */
  86:source\bsw\LabBoard/led.c **** /*****************************************************************************/
  87:source\bsw\LabBoard/led.c **** 
ARM GAS  C:\Users\agila\AppData\Local\Temp\ccxz9sa2.s 			page 3


  88:source\bsw\LabBoard/led.c **** /**
  89:source\bsw\LabBoard/led.c ****  * Initialises the LED's and turns them off
  90:source\bsw\LabBoard/led.c ****  * @return RC_SUCCESS if function was executed as exepected, other error code in case of error
  91:source\bsw\LabBoard/led.c ****  */
  92:source\bsw\LabBoard/led.c **** RC_t LED_Init()
  93:source\bsw\LabBoard/led.c **** {
  94:source\bsw\LabBoard/led.c ****     RC_t result = RC_SUCCESS;
  95:source\bsw\LabBoard/led.c ****     
  96:source\bsw\LabBoard/led.c ****     for (LED_id_t i = LED_RED; i < LED_ALL; i++)
  97:source\bsw\LabBoard/led.c ****     {
  98:source\bsw\LabBoard/led.c ****         LED__state[i] = OFF;
  99:source\bsw\LabBoard/led.c ****         
 100:source\bsw\LabBoard/led.c ****         RC_t clearResult;
 101:source\bsw\LabBoard/led.c ****         clearResult = LED_Set(i, LED_OFF);
 102:source\bsw\LabBoard/led.c ****         
 103:source\bsw\LabBoard/led.c ****         if (clearResult != RC_SUCCESS)
 104:source\bsw\LabBoard/led.c ****         {
 105:source\bsw\LabBoard/led.c ****             //memorize error
 106:source\bsw\LabBoard/led.c ****             result = clearResult;
 107:source\bsw\LabBoard/led.c ****         }
 108:source\bsw\LabBoard/led.c ****     }
 109:source\bsw\LabBoard/led.c ****     
 110:source\bsw\LabBoard/led.c ****     //Init PWM LEDs
 111:source\bsw\LabBoard/led.c ****     PWM_RED_Start();
 112:source\bsw\LabBoard/led.c ****     PWM_YELLOW_Start();
 113:source\bsw\LabBoard/led.c ****     PWM_GREEN_Start();
 114:source\bsw\LabBoard/led.c ****     
 115:source\bsw\LabBoard/led.c ****     //Init RGB
 116:source\bsw\LabBoard/led.c ****     PWM_RGB_BLUE_Start();
 117:source\bsw\LabBoard/led.c ****     PWM_RGB_GREEN_Start();
 118:source\bsw\LabBoard/led.c ****     PWM_RGB_RED_Start();
 119:source\bsw\LabBoard/led.c ****     
 120:source\bsw\LabBoard/led.c ****     return result;
 121:source\bsw\LabBoard/led.c **** }
 122:source\bsw\LabBoard/led.c **** 
 123:source\bsw\LabBoard/led.c **** /**
 124:source\bsw\LabBoard/led.c ****  * Sets the required LED
 125:source\bsw\LabBoard/led.c ****  * @param LED_t ledId - Identifier for the LED, ALL will change all LED's
 126:source\bsw\LabBoard/led.c ****  * @param LED_ONOFF_t ledOnOff - Trun the led on or off
 127:source\bsw\LabBoard/led.c ****  * @return RC_SUCCESS if function was executed as exepected, other error code in case of error
 128:source\bsw\LabBoard/led.c ****  */
 129:source\bsw\LabBoard/led.c **** RC_t LED_Set(LED_id_t ledId, LED_ONOFF_t ledOnOff)
 130:source\bsw\LabBoard/led.c **** {
  28              		.loc 1 130 0
  29              		.cfi_startproc
  30              		@ args = 0, pretend = 0, frame = 0
  31              		@ frame_needed = 0, uses_anonymous_args = 0
  32              	.LVL0:
  33 0000 38B5     		push	{r3, r4, r5, lr}
  34              		.cfi_def_cfa_offset 16
  35              		.cfi_offset 3, -16
  36              		.cfi_offset 4, -12
  37              		.cfi_offset 5, -8
  38              		.cfi_offset 14, -4
  39 0002 0446     		mov	r4, r0
  40 0004 0D46     		mov	r5, r1
 131:source\bsw\LabBoard/led.c ****     //set individual LED
ARM GAS  C:\Users\agila\AppData\Local\Temp\ccxz9sa2.s 			page 4


 132:source\bsw\LabBoard/led.c ****     switch (ledId)
  41              		.loc 1 132 0
  42 0006 0328     		cmp	r0, #3
  43 0008 24D8     		bhi	.L9
  44 000a DFE800F0 		tbb	[pc, r0]
  45              	.L4:
  46 000e 02       		.byte	(.L3-.L4)/2
  47 000f 09       		.byte	(.L5-.L4)/2
  48 0010 10       		.byte	(.L6-.L4)/2
  49 0011 1E       		.byte	(.L10-.L4)/2
  50              		.p2align 1
  51              	.L3:
 133:source\bsw\LabBoard/led.c ****     {
 134:source\bsw\LabBoard/led.c ****         case LED_RED : 
 135:source\bsw\LabBoard/led.c ****             RED_LED_Write(ledOnOff); 
  52              		.loc 1 135 0
  53 0012 0846     		mov	r0, r1
  54              	.LVL1:
  55 0014 FFF7FEFF 		bl	RED_LED_Write
  56              	.LVL2:
 136:source\bsw\LabBoard/led.c ****             LED__state[ledId] = ledOnOff; 
  57              		.loc 1 136 0
  58 0018 104B     		ldr	r3, .L12
  59 001a 1D55     		strb	r5, [r3, r4]
 137:source\bsw\LabBoard/led.c ****             break;
 138:source\bsw\LabBoard/led.c ****         
 139:source\bsw\LabBoard/led.c ****         case LED_YELLOW : 
 140:source\bsw\LabBoard/led.c ****             YELLOW_LED_Write(ledOnOff); 
 141:source\bsw\LabBoard/led.c ****             LED__state[ledId] = ledOnOff;
 142:source\bsw\LabBoard/led.c ****             break;
 143:source\bsw\LabBoard/led.c ****             
 144:source\bsw\LabBoard/led.c ****         case LED_GREEN : 
 145:source\bsw\LabBoard/led.c ****             GREEN_LED_Write(ledOnOff); 
 146:source\bsw\LabBoard/led.c ****             LED__state[ledId] = ledOnOff;
 147:source\bsw\LabBoard/led.c ****             break;
 148:source\bsw\LabBoard/led.c ****            
 149:source\bsw\LabBoard/led.c ****         case LED_ALL : 
 150:source\bsw\LabBoard/led.c ****             for (LED_id_t i = LED_RED; i < LED_ALL; i++)
 151:source\bsw\LabBoard/led.c ****             {
 152:source\bsw\LabBoard/led.c ****                 LED_Set(i, ledOnOff);
 153:source\bsw\LabBoard/led.c ****             }
 154:source\bsw\LabBoard/led.c ****             break;
 155:source\bsw\LabBoard/led.c ****         default: return RC_ERROR_BAD_PARAM;
 156:source\bsw\LabBoard/led.c ****     }
 157:source\bsw\LabBoard/led.c ****     
 158:source\bsw\LabBoard/led.c ****     return RC_SUCCESS;
  60              		.loc 1 158 0
  61 001c 0020     		movs	r0, #0
 137:source\bsw\LabBoard/led.c ****             break;
  62              		.loc 1 137 0
  63 001e 38BD     		pop	{r3, r4, r5, pc}
  64              	.LVL3:
  65              	.L5:
 140:source\bsw\LabBoard/led.c ****             LED__state[ledId] = ledOnOff;
  66              		.loc 1 140 0
  67 0020 0846     		mov	r0, r1
  68              	.LVL4:
ARM GAS  C:\Users\agila\AppData\Local\Temp\ccxz9sa2.s 			page 5


  69 0022 FFF7FEFF 		bl	YELLOW_LED_Write
  70              	.LVL5:
 141:source\bsw\LabBoard/led.c ****             break;
  71              		.loc 1 141 0
  72 0026 0D4B     		ldr	r3, .L12
  73 0028 1D55     		strb	r5, [r3, r4]
  74              		.loc 1 158 0
  75 002a 0020     		movs	r0, #0
 142:source\bsw\LabBoard/led.c ****             
  76              		.loc 1 142 0
  77 002c 38BD     		pop	{r3, r4, r5, pc}
  78              	.LVL6:
  79              	.L6:
 145:source\bsw\LabBoard/led.c ****             LED__state[ledId] = ledOnOff;
  80              		.loc 1 145 0
  81 002e 0846     		mov	r0, r1
  82              	.LVL7:
  83 0030 FFF7FEFF 		bl	GREEN_LED_Write
  84              	.LVL8:
 146:source\bsw\LabBoard/led.c ****             break;
  85              		.loc 1 146 0
  86 0034 094B     		ldr	r3, .L12
  87 0036 1D55     		strb	r5, [r3, r4]
  88              		.loc 1 158 0
  89 0038 0020     		movs	r0, #0
 147:source\bsw\LabBoard/led.c ****            
  90              		.loc 1 147 0
  91 003a 38BD     		pop	{r3, r4, r5, pc}
  92              	.LVL9:
  93              	.L8:
  94              	.LBB9:
 152:source\bsw\LabBoard/led.c ****             }
  95              		.loc 1 152 0 discriminator 3
  96 003c 2946     		mov	r1, r5
  97 003e 2046     		mov	r0, r4
  98 0040 FFF7FEFF 		bl	LED_Set
  99              	.LVL10:
 150:source\bsw\LabBoard/led.c ****             {
 100              		.loc 1 150 0 discriminator 3
 101 0044 0134     		adds	r4, r4, #1
 102              	.LVL11:
 103 0046 E4B2     		uxtb	r4, r4
 104              	.LVL12:
 105 0048 00E0     		b	.L7
 106              	.LVL13:
 107              	.L10:
 108              	.LBE9:
 132:source\bsw\LabBoard/led.c ****     {
 109              		.loc 1 132 0
 110 004a 0024     		movs	r4, #0
 111              	.LVL14:
 112              	.L7:
 113              	.LBB10:
 150:source\bsw\LabBoard/led.c ****             {
 114              		.loc 1 150 0 discriminator 1
 115 004c 022C     		cmp	r4, #2
 116 004e F5D9     		bls	.L8
ARM GAS  C:\Users\agila\AppData\Local\Temp\ccxz9sa2.s 			page 6


 117              	.LBE10:
 118              		.loc 1 158 0
 119 0050 0020     		movs	r0, #0
 120              	.LBB11:
 121 0052 38BD     		pop	{r3, r4, r5, pc}
 122              	.LVL15:
 123              	.L9:
 124              	.LBE11:
 155:source\bsw\LabBoard/led.c ****     }
 125              		.loc 1 155 0
 126 0054 6FF01300 		mvn	r0, #19
 127              	.LVL16:
 159:source\bsw\LabBoard/led.c **** }
 128              		.loc 1 159 0
 129 0058 38BD     		pop	{r3, r4, r5, pc}
 130              	.L13:
 131 005a 00BF     		.align	2
 132              	.L12:
 133 005c 00000000 		.word	.LANCHOR0
 134              		.cfi_endproc
 135              	.LFE111:
 136              		.size	LED_Set, .-LED_Set
 137              		.section	.text.LED_Init,"ax",%progbits
 138              		.align	2
 139              		.global	LED_Init
 140              		.thumb
 141              		.thumb_func
 142              		.type	LED_Init, %function
 143              	LED_Init:
 144              	.LFB110:
  93:source\bsw\LabBoard/led.c ****     RC_t result = RC_SUCCESS;
 145              		.loc 1 93 0
 146              		.cfi_startproc
 147              		@ args = 0, pretend = 0, frame = 0
 148              		@ frame_needed = 0, uses_anonymous_args = 0
 149 0000 38B5     		push	{r3, r4, r5, lr}
 150              		.cfi_def_cfa_offset 16
 151              		.cfi_offset 3, -16
 152              		.cfi_offset 4, -12
 153              		.cfi_offset 5, -8
 154              		.cfi_offset 14, -4
 155              	.LVL17:
 156              	.LBB12:
  96:source\bsw\LabBoard/led.c ****     {
 157              		.loc 1 96 0
 158 0002 0024     		movs	r4, #0
 159              	.LBE12:
  94:source\bsw\LabBoard/led.c ****     
 160              		.loc 1 94 0
 161 0004 2546     		mov	r5, r4
 162              	.LBB14:
  96:source\bsw\LabBoard/led.c ****     {
 163              		.loc 1 96 0
 164 0006 09E0     		b	.L15
 165              	.LVL18:
 166              	.L17:
 167              	.LBB13:
ARM GAS  C:\Users\agila\AppData\Local\Temp\ccxz9sa2.s 			page 7


  98:source\bsw\LabBoard/led.c ****         
 168              		.loc 1 98 0
 169 0008 0021     		movs	r1, #0
 170 000a 0C4B     		ldr	r3, .L20
 171 000c 1955     		strb	r1, [r3, r4]
 101:source\bsw\LabBoard/led.c ****         
 172              		.loc 1 101 0
 173 000e 2046     		mov	r0, r4
 174 0010 FFF7FEFF 		bl	LED_Set
 175              	.LVL19:
 103:source\bsw\LabBoard/led.c ****         {
 176              		.loc 1 103 0
 177 0014 00B1     		cbz	r0, .L16
 106:source\bsw\LabBoard/led.c ****         }
 178              		.loc 1 106 0
 179 0016 0546     		mov	r5, r0
 180              	.LVL20:
 181              	.L16:
 182              	.LBE13:
  96:source\bsw\LabBoard/led.c ****     {
 183              		.loc 1 96 0 discriminator 2
 184 0018 0134     		adds	r4, r4, #1
 185              	.LVL21:
 186 001a E4B2     		uxtb	r4, r4
 187              	.LVL22:
 188              	.L15:
  96:source\bsw\LabBoard/led.c ****     {
 189              		.loc 1 96 0 is_stmt 0 discriminator 1
 190 001c 022C     		cmp	r4, #2
 191 001e F3D9     		bls	.L17
 192              	.LBE14:
 111:source\bsw\LabBoard/led.c ****     PWM_YELLOW_Start();
 193              		.loc 1 111 0 is_stmt 1
 194 0020 FFF7FEFF 		bl	PWM_RED_Start
 195              	.LVL23:
 112:source\bsw\LabBoard/led.c ****     PWM_GREEN_Start();
 196              		.loc 1 112 0
 197 0024 FFF7FEFF 		bl	PWM_YELLOW_Start
 198              	.LVL24:
 113:source\bsw\LabBoard/led.c ****     
 199              		.loc 1 113 0
 200 0028 FFF7FEFF 		bl	PWM_GREEN_Start
 201              	.LVL25:
 116:source\bsw\LabBoard/led.c ****     PWM_RGB_GREEN_Start();
 202              		.loc 1 116 0
 203 002c FFF7FEFF 		bl	PWM_RGB_BLUE_Start
 204              	.LVL26:
 117:source\bsw\LabBoard/led.c ****     PWM_RGB_RED_Start();
 205              		.loc 1 117 0
 206 0030 FFF7FEFF 		bl	PWM_RGB_GREEN_Start
 207              	.LVL27:
 118:source\bsw\LabBoard/led.c ****     
 208              		.loc 1 118 0
 209 0034 FFF7FEFF 		bl	PWM_RGB_RED_Start
 210              	.LVL28:
 121:source\bsw\LabBoard/led.c **** 
 211              		.loc 1 121 0
ARM GAS  C:\Users\agila\AppData\Local\Temp\ccxz9sa2.s 			page 8


 212 0038 2846     		mov	r0, r5
 213 003a 38BD     		pop	{r3, r4, r5, pc}
 214              	.LVL29:
 215              	.L21:
 216              		.align	2
 217              	.L20:
 218 003c 00000000 		.word	.LANCHOR0
 219              		.cfi_endproc
 220              	.LFE110:
 221              		.size	LED_Init, .-LED_Init
 222              		.section	.text.LED_Toggle,"ax",%progbits
 223              		.align	2
 224              		.global	LED_Toggle
 225              		.thumb
 226              		.thumb_func
 227              		.type	LED_Toggle, %function
 228              	LED_Toggle:
 229              	.LFB112:
 160:source\bsw\LabBoard/led.c **** 
 161:source\bsw\LabBoard/led.c **** 
 162:source\bsw\LabBoard/led.c **** 
 163:source\bsw\LabBoard/led.c **** /**
 164:source\bsw\LabBoard/led.c ****  * Toggle the required LED
 165:source\bsw\LabBoard/led.c ****  * @param LED_t ledId - Identifier for the LED, ALL will change all LED's
 166:source\bsw\LabBoard/led.c ****  * @return RC_SUCCESS if function was executed as exepected, other error code in case of error
 167:source\bsw\LabBoard/led.c ****  */
 168:source\bsw\LabBoard/led.c **** RC_t LED_Toggle(LED_id_t ledId)
 169:source\bsw\LabBoard/led.c **** {
 230              		.loc 1 169 0
 231              		.cfi_startproc
 232              		@ args = 0, pretend = 0, frame = 0
 233              		@ frame_needed = 0, uses_anonymous_args = 0
 234              	.LVL30:
 235 0000 10B5     		push	{r4, lr}
 236              		.cfi_def_cfa_offset 8
 237              		.cfi_offset 4, -8
 238              		.cfi_offset 14, -4
 170:source\bsw\LabBoard/led.c ****     //set individual LED
 171:source\bsw\LabBoard/led.c ****     switch (ledId)
 239              		.loc 1 171 0
 240 0002 0328     		cmp	r0, #3
 241 0004 38D8     		bhi	.L33
 242 0006 DFE800F0 		tbb	[pc, r0]
 243              	.L25:
 244 000a 02       		.byte	(.L24-.L25)/2
 245 000b 10       		.byte	(.L26-.L25)/2
 246 000c 1E       		.byte	(.L27-.L25)/2
 247 000d 32       		.byte	(.L34-.L25)/2
 248              		.p2align 1
 249              	.L24:
 172:source\bsw\LabBoard/led.c ****     {
 173:source\bsw\LabBoard/led.c ****         case LED_RED : 
 174:source\bsw\LabBoard/led.c ****             LED__state[ledId] = LED__toggleValue(LED__state[ledId]); 
 250              		.loc 1 174 0
 251 000e 1C4B     		ldr	r3, .L39
 252 0010 1B5C     		ldrb	r3, [r3, r0]	@ zero_extendqisi2
 253              	.LVL31:
ARM GAS  C:\Users\agila\AppData\Local\Temp\ccxz9sa2.s 			page 9


 254              	.LBB15:
 255              	.LBB16:
 175:source\bsw\LabBoard/led.c ****             RED_LED_Write(LED__state[ledId]);
 176:source\bsw\LabBoard/led.c ****             break;
 177:source\bsw\LabBoard/led.c ****         
 178:source\bsw\LabBoard/led.c ****         case LED_YELLOW : 
 179:source\bsw\LabBoard/led.c ****             LED__state[ledId] = LED__toggleValue(LED__state[ledId]); 
 180:source\bsw\LabBoard/led.c ****             YELLOW_LED_Write(LED__state[ledId]);
 181:source\bsw\LabBoard/led.c ****             break;
 182:source\bsw\LabBoard/led.c ****             
 183:source\bsw\LabBoard/led.c ****         case LED_GREEN : 
 184:source\bsw\LabBoard/led.c ****             LED__state[ledId] = LED__toggleValue(LED__state[ledId]); 
 185:source\bsw\LabBoard/led.c ****             GREEN_LED_Write(LED__state[ledId]);
 186:source\bsw\LabBoard/led.c ****             break;
 187:source\bsw\LabBoard/led.c ****            
 188:source\bsw\LabBoard/led.c ****         case LED_ALL : 
 189:source\bsw\LabBoard/led.c ****             for (LED_id_t i = LED_RED; i < LED_ALL; i++)
 190:source\bsw\LabBoard/led.c ****             {
 191:source\bsw\LabBoard/led.c ****                 LED_Toggle(i);
 192:source\bsw\LabBoard/led.c ****             }
 193:source\bsw\LabBoard/led.c ****             break;
 194:source\bsw\LabBoard/led.c ****         default: return RC_ERROR_BAD_PARAM;
 195:source\bsw\LabBoard/led.c ****     }
 196:source\bsw\LabBoard/led.c ****     
 197:source\bsw\LabBoard/led.c ****     return RC_SUCCESS;
 198:source\bsw\LabBoard/led.c **** }
 199:source\bsw\LabBoard/led.c **** 
 200:source\bsw\LabBoard/led.c **** 
 201:source\bsw\LabBoard/led.c **** /**
 202:source\bsw\LabBoard/led.c ****  * Inverts the parameter
 203:source\bsw\LabBoard/led.c ****  * @param LED_ONOFF_t ledOnOff - Value to be inverted
 204:source\bsw\LabBoard/led.c ****  * @return inverted parameter
 205:source\bsw\LabBoard/led.c ****  */
 206:source\bsw\LabBoard/led.c **** static inline LED_ONOFF_t LED__toggleValue(LED_ONOFF_t ledOnOff)
 207:source\bsw\LabBoard/led.c **** {
 208:source\bsw\LabBoard/led.c ****     if (ledOnOff == LED_ON) 
 256              		.loc 1 208 0
 257 0012 012B     		cmp	r3, #1
 258 0014 01D1     		bne	.L35
 209:source\bsw\LabBoard/led.c ****     {
 210:source\bsw\LabBoard/led.c ****         return LED_OFF;
 259              		.loc 1 210 0
 260 0016 0023     		movs	r3, #0
 261              	.LVL32:
 262 0018 00E0     		b	.L29
 263              	.LVL33:
 264              	.L35:
 211:source\bsw\LabBoard/led.c ****     }
 212:source\bsw\LabBoard/led.c ****     else
 213:source\bsw\LabBoard/led.c ****     {
 214:source\bsw\LabBoard/led.c ****         return LED_ON;
 265              		.loc 1 214 0
 266 001a 0123     		movs	r3, #1
 267              	.LVL34:
 268              	.L29:
 269              	.LBE16:
 270              	.LBE15:
ARM GAS  C:\Users\agila\AppData\Local\Temp\ccxz9sa2.s 			page 10


 174:source\bsw\LabBoard/led.c ****             RED_LED_Write(LED__state[ledId]);
 271              		.loc 1 174 0
 272 001c 184A     		ldr	r2, .L39
 273 001e 1354     		strb	r3, [r2, r0]
 175:source\bsw\LabBoard/led.c ****             break;
 274              		.loc 1 175 0
 275 0020 1846     		mov	r0, r3
 276              	.LVL35:
 277 0022 FFF7FEFF 		bl	RED_LED_Write
 278              	.LVL36:
 197:source\bsw\LabBoard/led.c **** }
 279              		.loc 1 197 0
 280 0026 0020     		movs	r0, #0
 176:source\bsw\LabBoard/led.c ****         
 281              		.loc 1 176 0
 282 0028 10BD     		pop	{r4, pc}
 283              	.LVL37:
 284              	.L26:
 179:source\bsw\LabBoard/led.c ****             YELLOW_LED_Write(LED__state[ledId]);
 285              		.loc 1 179 0
 286 002a 154B     		ldr	r3, .L39
 287 002c 1B5C     		ldrb	r3, [r3, r0]	@ zero_extendqisi2
 288              	.LVL38:
 289              	.LBB17:
 290              	.LBB18:
 208:source\bsw\LabBoard/led.c ****     {
 291              		.loc 1 208 0
 292 002e 012B     		cmp	r3, #1
 293 0030 01D1     		bne	.L36
 210:source\bsw\LabBoard/led.c ****     }
 294              		.loc 1 210 0
 295 0032 0023     		movs	r3, #0
 296              	.LVL39:
 297 0034 00E0     		b	.L30
 298              	.LVL40:
 299              	.L36:
 300              		.loc 1 214 0
 301 0036 0123     		movs	r3, #1
 302              	.LVL41:
 303              	.L30:
 304              	.LBE18:
 305              	.LBE17:
 179:source\bsw\LabBoard/led.c ****             YELLOW_LED_Write(LED__state[ledId]);
 306              		.loc 1 179 0
 307 0038 114A     		ldr	r2, .L39
 308 003a 1354     		strb	r3, [r2, r0]
 180:source\bsw\LabBoard/led.c ****             break;
 309              		.loc 1 180 0
 310 003c 1846     		mov	r0, r3
 311              	.LVL42:
 312 003e FFF7FEFF 		bl	YELLOW_LED_Write
 313              	.LVL43:
 197:source\bsw\LabBoard/led.c **** }
 314              		.loc 1 197 0
 315 0042 0020     		movs	r0, #0
 181:source\bsw\LabBoard/led.c ****             
 316              		.loc 1 181 0
ARM GAS  C:\Users\agila\AppData\Local\Temp\ccxz9sa2.s 			page 11


 317 0044 10BD     		pop	{r4, pc}
 318              	.LVL44:
 319              	.L27:
 184:source\bsw\LabBoard/led.c ****             GREEN_LED_Write(LED__state[ledId]);
 320              		.loc 1 184 0
 321 0046 0E4B     		ldr	r3, .L39
 322 0048 1B5C     		ldrb	r3, [r3, r0]	@ zero_extendqisi2
 323              	.LVL45:
 324              	.LBB19:
 325              	.LBB20:
 208:source\bsw\LabBoard/led.c ****     {
 326              		.loc 1 208 0
 327 004a 012B     		cmp	r3, #1
 328 004c 01D1     		bne	.L37
 210:source\bsw\LabBoard/led.c ****     }
 329              		.loc 1 210 0
 330 004e 0023     		movs	r3, #0
 331              	.LVL46:
 332 0050 00E0     		b	.L31
 333              	.LVL47:
 334              	.L37:
 335              		.loc 1 214 0
 336 0052 0123     		movs	r3, #1
 337              	.LVL48:
 338              	.L31:
 339              	.LBE20:
 340              	.LBE19:
 184:source\bsw\LabBoard/led.c ****             GREEN_LED_Write(LED__state[ledId]);
 341              		.loc 1 184 0
 342 0054 0A4A     		ldr	r2, .L39
 343 0056 1354     		strb	r3, [r2, r0]
 185:source\bsw\LabBoard/led.c ****             break;
 344              		.loc 1 185 0
 345 0058 1846     		mov	r0, r3
 346              	.LVL49:
 347 005a FFF7FEFF 		bl	GREEN_LED_Write
 348              	.LVL50:
 197:source\bsw\LabBoard/led.c **** }
 349              		.loc 1 197 0
 350 005e 0020     		movs	r0, #0
 186:source\bsw\LabBoard/led.c ****            
 351              		.loc 1 186 0
 352 0060 10BD     		pop	{r4, pc}
 353              	.LVL51:
 354              	.L32:
 355              	.LBB21:
 191:source\bsw\LabBoard/led.c ****             }
 356              		.loc 1 191 0 discriminator 3
 357 0062 2046     		mov	r0, r4
 358 0064 FFF7FEFF 		bl	LED_Toggle
 359              	.LVL52:
 189:source\bsw\LabBoard/led.c ****             {
 360              		.loc 1 189 0 discriminator 3
 361 0068 0134     		adds	r4, r4, #1
 362              	.LVL53:
 363 006a E4B2     		uxtb	r4, r4
 364              	.LVL54:
ARM GAS  C:\Users\agila\AppData\Local\Temp\ccxz9sa2.s 			page 12


 365 006c 00E0     		b	.L28
 366              	.LVL55:
 367              	.L34:
 368              	.LBE21:
 171:source\bsw\LabBoard/led.c ****     {
 369              		.loc 1 171 0
 370 006e 0024     		movs	r4, #0
 371              	.LVL56:
 372              	.L28:
 373              	.LBB22:
 189:source\bsw\LabBoard/led.c ****             {
 374              		.loc 1 189 0 discriminator 1
 375 0070 022C     		cmp	r4, #2
 376 0072 F6D9     		bls	.L32
 377              	.LBE22:
 197:source\bsw\LabBoard/led.c **** }
 378              		.loc 1 197 0
 379 0074 0020     		movs	r0, #0
 380              	.LBB23:
 381 0076 10BD     		pop	{r4, pc}
 382              	.LVL57:
 383              	.L33:
 384              	.LBE23:
 194:source\bsw\LabBoard/led.c ****     }
 385              		.loc 1 194 0
 386 0078 6FF01300 		mvn	r0, #19
 387              	.LVL58:
 198:source\bsw\LabBoard/led.c **** 
 388              		.loc 1 198 0
 389 007c 10BD     		pop	{r4, pc}
 390              	.L40:
 391 007e 00BF     		.align	2
 392              	.L39:
 393 0080 00000000 		.word	.LANCHOR0
 394              		.cfi_endproc
 395              	.LFE112:
 396              		.size	LED_Toggle, .-LED_Toggle
 397              		.section	.text.LED_RGB_Set,"ax",%progbits
 398              		.align	2
 399              		.global	LED_RGB_Set
 400              		.thumb
 401              		.thumb_func
 402              		.type	LED_RGB_Set, %function
 403              	LED_RGB_Set:
 404              	.LFB114:
 215:source\bsw\LabBoard/led.c ****     }
 216:source\bsw\LabBoard/led.c **** }
 217:source\bsw\LabBoard/led.c **** 
 218:source\bsw\LabBoard/led.c **** /**
 219:source\bsw\LabBoard/led.c ****  * Set the RGB LED
 220:source\bsw\LabBoard/led.c ****  * @param uint16_t red - brightness 
 221:source\bsw\LabBoard/led.c ****  * @param uint16_t green - brightness 
 222:source\bsw\LabBoard/led.c ****  * @param uint16_t blue - brightness 
 223:source\bsw\LabBoard/led.c ****  * @return RC_SUCCESS if function was executed as exepected, other error code in case of error
 224:source\bsw\LabBoard/led.c ****  */
 225:source\bsw\LabBoard/led.c **** RC_t LED_RGB_Set(uint8_t red, uint8_t green, uint8_t blue)
 226:source\bsw\LabBoard/led.c **** {
ARM GAS  C:\Users\agila\AppData\Local\Temp\ccxz9sa2.s 			page 13


 405              		.loc 1 226 0
 406              		.cfi_startproc
 407              		@ args = 0, pretend = 0, frame = 0
 408              		@ frame_needed = 0, uses_anonymous_args = 0
 409              	.LVL59:
 410 0000 70B5     		push	{r4, r5, r6, lr}
 411              		.cfi_def_cfa_offset 16
 412              		.cfi_offset 4, -16
 413              		.cfi_offset 5, -12
 414              		.cfi_offset 6, -8
 415              		.cfi_offset 14, -4
 416 0002 0E46     		mov	r6, r1
 417 0004 1546     		mov	r5, r2
 227:source\bsw\LabBoard/led.c ****     PWM_RGB_RED_WriteCompare(LED__Pulse_Width[red]);
 418              		.loc 1 227 0
 419 0006 074C     		ldr	r4, .L43
 420 0008 14F81000 		ldrb	r0, [r4, r0, lsl #1]	@ zero_extendqisi2
 421              	.LVL60:
 422 000c FFF7FEFF 		bl	PWM_RGB_RED_WriteCompare
 423              	.LVL61:
 228:source\bsw\LabBoard/led.c ****     PWM_RGB_GREEN_WriteCompare(LED__Pulse_Width[green]);
 424              		.loc 1 228 0
 425 0010 14F81600 		ldrb	r0, [r4, r6, lsl #1]	@ zero_extendqisi2
 426 0014 FFF7FEFF 		bl	PWM_RGB_GREEN_WriteCompare
 427              	.LVL62:
 229:source\bsw\LabBoard/led.c ****     PWM_RGB_BLUE_WriteCompare(LED__Pulse_Width[blue]);
 428              		.loc 1 229 0
 429 0018 14F81500 		ldrb	r0, [r4, r5, lsl #1]	@ zero_extendqisi2
 430 001c FFF7FEFF 		bl	PWM_RGB_BLUE_WriteCompare
 431              	.LVL63:
 230:source\bsw\LabBoard/led.c ****  
 231:source\bsw\LabBoard/led.c ****     return RC_SUCCESS;
 232:source\bsw\LabBoard/led.c **** }
 432              		.loc 1 232 0
 433 0020 0020     		movs	r0, #0
 434 0022 70BD     		pop	{r4, r5, r6, pc}
 435              	.L44:
 436              		.align	2
 437              	.L43:
 438 0024 00000000 		.word	.LANCHOR1
 439              		.cfi_endproc
 440              	.LFE114:
 441              		.size	LED_RGB_Set, .-LED_RGB_Set
 442              		.section	.text.LED_PWM_Set,"ax",%progbits
 443              		.align	2
 444              		.global	LED_PWM_Set
 445              		.thumb
 446              		.thumb_func
 447              		.type	LED_PWM_Set, %function
 448              	LED_PWM_Set:
 449              	.LFB115:
 233:source\bsw\LabBoard/led.c **** 
 234:source\bsw\LabBoard/led.c **** RC_t LED_PWM_Set(uint16_t redValue, uint16_t yellowValue, uint16_t greenValue)
 235:source\bsw\LabBoard/led.c **** {
 450              		.loc 1 235 0
 451              		.cfi_startproc
 452              		@ args = 0, pretend = 0, frame = 0
ARM GAS  C:\Users\agila\AppData\Local\Temp\ccxz9sa2.s 			page 14


 453              		@ frame_needed = 0, uses_anonymous_args = 0
 454              	.LVL64:
 455 0000 70B5     		push	{r4, r5, r6, lr}
 456              		.cfi_def_cfa_offset 16
 457              		.cfi_offset 4, -16
 458              		.cfi_offset 5, -12
 459              		.cfi_offset 6, -8
 460              		.cfi_offset 14, -4
 461 0002 0646     		mov	r6, r0
 462 0004 0D46     		mov	r5, r1
 463 0006 1446     		mov	r4, r2
 236:source\bsw\LabBoard/led.c ****     UART_LOG_PutString("C4");
 464              		.loc 1 236 0
 465 0008 0648     		ldr	r0, .L47
 466              	.LVL65:
 467 000a FFF7FEFF 		bl	UART_LOG_PutString
 468              	.LVL66:
 237:source\bsw\LabBoard/led.c ****     PWM_RED_WriteCompare(redValue);
 469              		.loc 1 237 0
 470 000e F0B2     		uxtb	r0, r6
 471 0010 FFF7FEFF 		bl	PWM_RED_WriteCompare
 472              	.LVL67:
 238:source\bsw\LabBoard/led.c ****     PWM_YELLOW_WriteCompare(yellowValue); 
 473              		.loc 1 238 0
 474 0014 E8B2     		uxtb	r0, r5
 475 0016 FFF7FEFF 		bl	PWM_YELLOW_WriteCompare
 476              	.LVL68:
 239:source\bsw\LabBoard/led.c ****     PWM_GREEN_WriteCompare(greenValue); 
 477              		.loc 1 239 0
 478 001a E0B2     		uxtb	r0, r4
 479 001c FFF7FEFF 		bl	PWM_GREEN_WriteCompare
 480              	.LVL69:
 240:source\bsw\LabBoard/led.c ****  
 241:source\bsw\LabBoard/led.c ****     return RC_SUCCESS;
 242:source\bsw\LabBoard/led.c **** }
 481              		.loc 1 242 0
 482 0020 0020     		movs	r0, #0
 483 0022 70BD     		pop	{r4, r5, r6, pc}
 484              	.L48:
 485              		.align	2
 486              	.L47:
 487 0024 00000000 		.word	.LC0
 488              		.cfi_endproc
 489              	.LFE115:
 490              		.size	LED_PWM_Set, .-LED_PWM_Set
 491              		.section	.rodata
 492              		.align	2
 493              		.set	.LANCHOR1,. + 0
 494              		.type	LED__Pulse_Width, %object
 495              		.size	LED__Pulse_Width, 512
 496              	LED__Pulse_Width:
 497 0000 0000     		.short	0
 498 0002 0100     		.short	1
 499 0004 0100     		.short	1
 500 0006 0100     		.short	1
 501 0008 0100     		.short	1
 502 000a 0100     		.short	1
ARM GAS  C:\Users\agila\AppData\Local\Temp\ccxz9sa2.s 			page 15


 503 000c 0100     		.short	1
 504 000e 0100     		.short	1
 505 0010 0100     		.short	1
 506 0012 0200     		.short	2
 507 0014 0200     		.short	2
 508 0016 0200     		.short	2
 509 0018 0200     		.short	2
 510 001a 0200     		.short	2
 511 001c 0200     		.short	2
 512 001e 0200     		.short	2
 513 0020 0200     		.short	2
 514 0022 0200     		.short	2
 515 0024 0200     		.short	2
 516 0026 0200     		.short	2
 517 0028 0200     		.short	2
 518 002a 0300     		.short	3
 519 002c 0300     		.short	3
 520 002e 0300     		.short	3
 521 0030 0300     		.short	3
 522 0032 0300     		.short	3
 523 0034 0300     		.short	3
 524 0036 0300     		.short	3
 525 0038 0400     		.short	4
 526 003a 0400     		.short	4
 527 003c 0400     		.short	4
 528 003e 0400     		.short	4
 529 0040 0400     		.short	4
 530 0042 0400     		.short	4
 531 0044 0500     		.short	5
 532 0046 0500     		.short	5
 533 0048 0500     		.short	5
 534 004a 0500     		.short	5
 535 004c 0500     		.short	5
 536 004e 0600     		.short	6
 537 0050 0600     		.short	6
 538 0052 0600     		.short	6
 539 0054 0600     		.short	6
 540 0056 0700     		.short	7
 541 0058 0700     		.short	7
 542 005a 0700     		.short	7
 543 005c 0800     		.short	8
 544 005e 0800     		.short	8
 545 0060 0800     		.short	8
 546 0062 0900     		.short	9
 547 0064 0900     		.short	9
 548 0066 0A00     		.short	10
 549 0068 0A00     		.short	10
 550 006a 0A00     		.short	10
 551 006c 0B00     		.short	11
 552 006e 0B00     		.short	11
 553 0070 0C00     		.short	12
 554 0072 0C00     		.short	12
 555 0074 0D00     		.short	13
 556 0076 0D00     		.short	13
 557 0078 0E00     		.short	14
 558 007a 0F00     		.short	15
 559 007c 0F00     		.short	15
ARM GAS  C:\Users\agila\AppData\Local\Temp\ccxz9sa2.s 			page 16


 560 007e 1000     		.short	16
 561 0080 1100     		.short	17
 562 0082 1100     		.short	17
 563 0084 1200     		.short	18
 564 0086 1300     		.short	19
 565 0088 1400     		.short	20
 566 008a 1500     		.short	21
 567 008c 1600     		.short	22
 568 008e 1700     		.short	23
 569 0090 1800     		.short	24
 570 0092 1900     		.short	25
 571 0094 1A00     		.short	26
 572 0096 1B00     		.short	27
 573 0098 1C00     		.short	28
 574 009a 1D00     		.short	29
 575 009c 1F00     		.short	31
 576 009e 2000     		.short	32
 577 00a0 2100     		.short	33
 578 00a2 2300     		.short	35
 579 00a4 2400     		.short	36
 580 00a6 2600     		.short	38
 581 00a8 2800     		.short	40
 582 00aa 2900     		.short	41
 583 00ac 2B00     		.short	43
 584 00ae 2D00     		.short	45
 585 00b0 2F00     		.short	47
 586 00b2 3100     		.short	49
 587 00b4 3400     		.short	52
 588 00b6 3600     		.short	54
 589 00b8 3800     		.short	56
 590 00ba 3B00     		.short	59
 591 00bc 3D00     		.short	61
 592 00be 4000     		.short	64
 593 00c0 4300     		.short	67
 594 00c2 4600     		.short	70
 595 00c4 4900     		.short	73
 596 00c6 4C00     		.short	76
 597 00c8 4F00     		.short	79
 598 00ca 5300     		.short	83
 599 00cc 5700     		.short	87
 600 00ce 5B00     		.short	91
 601 00d0 5F00     		.short	95
 602 00d2 6300     		.short	99
 603 00d4 6700     		.short	103
 604 00d6 6C00     		.short	108
 605 00d8 7000     		.short	112
 606 00da 7500     		.short	117
 607 00dc 7B00     		.short	123
 608 00de 8000     		.short	128
 609 00e0 8600     		.short	134
 610 00e2 8C00     		.short	140
 611 00e4 9200     		.short	146
 612 00e6 9800     		.short	152
 613 00e8 9F00     		.short	159
 614 00ea A600     		.short	166
 615 00ec AD00     		.short	173
 616 00ee B500     		.short	181
ARM GAS  C:\Users\agila\AppData\Local\Temp\ccxz9sa2.s 			page 17


 617 00f0 BD00     		.short	189
 618 00f2 C500     		.short	197
 619 00f4 CE00     		.short	206
 620 00f6 D700     		.short	215
 621 00f8 E100     		.short	225
 622 00fa EB00     		.short	235
 623 00fc F500     		.short	245
 624 00fe 0001     		.short	256
 625 0100 0B01     		.short	267
 626 0102 1701     		.short	279
 627 0104 2401     		.short	292
 628 0106 3001     		.short	304
 629 0108 3E01     		.short	318
 630 010a 4C01     		.short	332
 631 010c 5B01     		.short	347
 632 010e 6A01     		.short	362
 633 0110 7A01     		.short	378
 634 0112 8B01     		.short	395
 635 0114 9C01     		.short	412
 636 0116 AF01     		.short	431
 637 0118 C201     		.short	450
 638 011a D601     		.short	470
 639 011c EA01     		.short	490
 640 011e 0002     		.short	512
 641 0120 1702     		.short	535
 642 0122 2E02     		.short	558
 643 0124 4702     		.short	583
 644 0126 6102     		.short	609
 645 0128 7C02     		.short	636
 646 012a 9802     		.short	664
 647 012c B502     		.short	693
 648 012e D402     		.short	724
 649 0130 F402     		.short	756
 650 0132 1603     		.short	790
 651 0134 3903     		.short	825
 652 0136 5D03     		.short	861
 653 0138 8303     		.short	899
 654 013a AB03     		.short	939
 655 013c D503     		.short	981
 656 013e 0004     		.short	1024
 657 0140 2D04     		.short	1069
 658 0142 5D04     		.short	1117
 659 0144 8E04     		.short	1166
 660 0146 C204     		.short	1218
 661 0148 F804     		.short	1272
 662 014a 3005     		.short	1328
 663 014c 6B05     		.short	1387
 664 014e A805     		.short	1448
 665 0150 E805     		.short	1512
 666 0152 2B06     		.short	1579
 667 0154 7106     		.short	1649
 668 0156 BA06     		.short	1722
 669 0158 0607     		.short	1798
 670 015a 5607     		.short	1878
 671 015c A907     		.short	1961
 672 015e 0008     		.short	2048
 673 0160 5B08     		.short	2139
ARM GAS  C:\Users\agila\AppData\Local\Temp\ccxz9sa2.s 			page 18


 674 0162 B908     		.short	2233
 675 0164 1C09     		.short	2332
 676 0166 8309     		.short	2435
 677 0168 EF09     		.short	2543
 678 016a 600A     		.short	2656
 679 016c D50A     		.short	2773
 680 016e 500B     		.short	2896
 681 0170 D10B     		.short	3025
 682 0172 560C     		.short	3158
 683 0174 E20C     		.short	3298
 684 0176 740D     		.short	3444
 685 0178 0D0E     		.short	3597
 686 017a AC0E     		.short	3756
 687 017c 520F     		.short	3922
 688 017e 0010     		.short	4096
 689 0180 B510     		.short	4277
 690 0182 7311     		.short	4467
 691 0184 3812     		.short	4664
 692 0186 0713     		.short	4871
 693 0188 DF13     		.short	5087
 694 018a C014     		.short	5312
 695 018c AB15     		.short	5547
 696 018e A116     		.short	5793
 697 0190 A117     		.short	6049
 698 0192 AD18     		.short	6317
 699 0194 C419     		.short	6596
 700 0196 E91A     		.short	6889
 701 0198 1A1C     		.short	7194
 702 019a 581D     		.short	7512
 703 019c A51E     		.short	7845
 704 019e 0020     		.short	8192
 705 01a0 6B21     		.short	8555
 706 01a2 E522     		.short	8933
 707 01a4 7124     		.short	9329
 708 01a6 0E26     		.short	9742
 709 01a8 BD27     		.short	10173
 710 01aa 8029     		.short	10624
 711 01ac 562B     		.short	11094
 712 01ae 412D     		.short	11585
 713 01b0 422F     		.short	12098
 714 01b2 5A31     		.short	12634
 715 01b4 8933     		.short	13193
 716 01b6 D135     		.short	13777
 717 01b8 3338     		.short	14387
 718 01ba B03A     		.short	15024
 719 01bc 493D     		.short	15689
 720 01be 0040     		.short	16384
 721 01c0 D542     		.short	17109
 722 01c2 CB45     		.short	17867
 723 01c4 E248     		.short	18658
 724 01c6 1C4C     		.short	19484
 725 01c8 7A4F     		.short	20346
 726 01ca FF52     		.short	21247
 727 01cc AC56     		.short	22188
 728 01ce 825A     		.short	23170
 729 01d0 845E     		.short	24196
 730 01d2 B362     		.short	25267
ARM GAS  C:\Users\agila\AppData\Local\Temp\ccxz9sa2.s 			page 19


 731 01d4 1267     		.short	26386
 732 01d6 A26B     		.short	27554
 733 01d8 6670     		.short	28774
 734 01da 6075     		.short	30048
 735 01dc 927A     		.short	31378
 736 01de 0080     		.short	-32768
 737 01e0 AA85     		.short	-31318
 738 01e2 958B     		.short	-29803
 739 01e4 C391     		.short	-28221
 740 01e6 3798     		.short	-26569
 741 01e8 F59E     		.short	-24843
 742 01ea FEA5     		.short	-23042
 743 01ec 58AD     		.short	-21160
 744 01ee 04B5     		.short	-19196
 745 01f0 08BD     		.short	-17144
 746 01f2 66C5     		.short	-15002
 747 01f4 24CE     		.short	-12764
 748 01f6 44D7     		.short	-10428
 749 01f8 CCE0     		.short	-7988
 750 01fa C0EA     		.short	-5440
 751 01fc 25F5     		.short	-2779
 752 01fe FFFF     		.short	-1
 753              		.section	.rodata.str1.4,"aMS",%progbits,1
 754              		.align	2
 755              	.LC0:
 756 0000 433400   		.ascii	"C4\000"
 757              		.bss
 758              		.align	2
 759              		.set	.LANCHOR0,. + 0
 760              		.type	LED__state, %object
 761              		.size	LED__state, 3
 762              	LED__state:
 763 0000 000000   		.space	3
 764              		.text
 765              	.Letext0:
 766              		.file 2 "c:\\h_da softwares & projects\\psoc creator\\4.4\\psoc creator\\import\\gnu\\arm\\5.4.1\\
 767              		.file 3 "c:\\h_da softwares & projects\\psoc creator\\4.4\\psoc creator\\import\\gnu\\arm\\5.4.1\\
 768              		.file 4 "Generated_Source\\PSoC5/cytypes.h"
 769              		.file 5 "Generated_Source\\PSoC5/ErikaOS_common_ee_types.inc"
 770              		.file 6 "Generated_Source\\PSoC5/ErikaOS_cortex_mx_ee_cpu.inc"
 771              		.file 7 ".\\source\\bsw/global.h"
 772              		.file 8 "source\\bsw\\LabBoard\\led.h"
 773              		.file 9 "Generated_Source\\PSoC5/ErikaOS_ee_oo_intfunc.inc"
 774              		.file 10 "Generated_Source\\PSoC5/ErikaOS_cortex_mx_ee_context.inc"
 775              		.file 11 "Generated_Source\\PSoC5/ErikaOS_common_ee_primitives.inc"
 776              		.file 12 "Generated_Source\\PSoC5/core_cm3.h"
 777              		.file 13 "Generated_Source\\PSoC5/RED_LED.h"
 778              		.file 14 "Generated_Source\\PSoC5/YELLOW_LED.h"
 779              		.file 15 "Generated_Source\\PSoC5/GREEN_LED.h"
 780              		.file 16 "Generated_Source\\PSoC5/PWM_RED.h"
 781              		.file 17 "Generated_Source\\PSoC5/PWM_YELLOW.h"
 782              		.file 18 "Generated_Source\\PSoC5/PWM_GREEN.h"
 783              		.file 19 "Generated_Source\\PSoC5/PWM_RGB_BLUE.h"
 784              		.file 20 "Generated_Source\\PSoC5/PWM_RGB_GREEN.h"
 785              		.file 21 "Generated_Source\\PSoC5/PWM_RGB_RED.h"
 786              		.file 22 "Generated_Source\\PSoC5/UART_LOG.h"