ARM GAS  C:\Users\agila\AppData\Local\Temp\ccuh57Vd.s 			page 1


   1              		.syntax unified
   2              		.cpu cortex-m3
   3              		.fpu softvfp
   4              		.eabi_attribute 20, 1
   5              		.eabi_attribute 21, 1
   6              		.eabi_attribute 23, 3
   7              		.eabi_attribute 24, 1
   8              		.eabi_attribute 25, 1
   9              		.eabi_attribute 26, 1
  10              		.eabi_attribute 30, 1
  11              		.eabi_attribute 34, 1
  12              		.eabi_attribute 18, 4
  13              		.thumb
  14              		.syntax unified
  15              		.file	"main.c"
  16              		.text
  17              	.Ltext0:
  18              		.cfi_sections	.debug_frame
  19              		.section	.text.main,"ax",%progbits
  20              		.align	2
  21              		.global	main
  22              		.thumb
  23              		.thumb_func
  24              		.type	main, %function
  25              	main:
  26              	.LFB111:
  27              		.file 1 "source\\asw\\main.c"
   1:source\asw/main.c **** /* ========================================
   2:source\asw/main.c ****  *
   3:source\asw/main.c ****  * Copyright YOUR COMPANY, THE YEAR
   4:source\asw/main.c ****  * All Rights Reserved
   5:source\asw/main.c ****  * UNPUBLISHED, LICENSED SOFTWARE.
   6:source\asw/main.c ****  *
   7:source\asw/main.c ****  * CONFIDENTIAL AND PROPRIETARY INFORMATION
   8:source\asw/main.c ****  * WHICH IS THE PROPERTY OF your company.
   9:source\asw/main.c ****  *
  10:source\asw/main.c ****  * ========================================
  11:source\asw/main.c **** */
  12:source\asw/main.c **** #include <stdlib.h>
  13:source\asw/main.c **** #include "project.h"
  14:source\asw/main.c **** #include "global.h"
  15:source\asw/main.c **** 
  16:source\asw/main.c **** #include "button.h"
  17:source\asw/main.c **** #include "led.h"
  18:source\asw/main.c **** #include "seven.h"
  19:source\asw/main.c **** #include "tft.h"
  20:source\asw/main.c **** #include "UART_LOG.h"
  21:source\asw/main.c **** 
  22:source\asw/main.c **** #include "ReactionGame.h"
  23:source\asw/main.c **** #include "ArcadianLight.h"
  24:source\asw/main.c **** #include "TimingAnalyzer.h"
  25:source\asw/main.c **** 
  26:source\asw/main.c **** //#define CyclicTask
  27:source\asw/main.c **** 
  28:source\asw/main.c **** int main()
  29:source\asw/main.c **** {
  28              		.loc 1 29 0
ARM GAS  C:\Users\agila\AppData\Local\Temp\ccuh57Vd.s 			page 2


  29              		.cfi_startproc
  30              		@ Volatile: function does not return.
  31              		@ args = 0, pretend = 0, frame = 0
  32              		@ frame_needed = 0, uses_anonymous_args = 0
  33 0000 08B5     		push	{r3, lr}
  34              		.cfi_def_cfa_offset 8
  35              		.cfi_offset 3, -8
  36              		.cfi_offset 14, -4
  30:source\asw/main.c ****     // Enable global interrupts.
  31:source\asw/main.c ****     CyGlobalIntEnable; 
  37              		.loc 1 31 0
  38              		.syntax unified
  39              	@ 31 "source\asw\main.c" 1
  40 0002 62B6     		CPSIE   i
  41              	@ 0 "" 2
  42              	.LVL0:
  43              		.thumb
  44              		.syntax unified
  45              	.LBB56:
  46              	.LBB57:
  47              		.file 2 "Generated_Source\\PSoC5/ErikaOS_cortex_mx_ee_systick.inc"
   1:Generated_Source\PSoC5/ErikaOS_cortex_mx_ee_systick.inc **** /* ###*B*###
   2:Generated_Source\PSoC5/ErikaOS_cortex_mx_ee_systick.inc ****  * ERIKA Enterprise - a tiny RTOS for small microcontrollers
   3:Generated_Source\PSoC5/ErikaOS_cortex_mx_ee_systick.inc ****  *
   4:Generated_Source\PSoC5/ErikaOS_cortex_mx_ee_systick.inc ****  * Copyright (C) 2002-2012  Evidence Srl
   5:Generated_Source\PSoC5/ErikaOS_cortex_mx_ee_systick.inc ****  *
   6:Generated_Source\PSoC5/ErikaOS_cortex_mx_ee_systick.inc ****  * This file is part of ERIKA Enterprise.
   7:Generated_Source\PSoC5/ErikaOS_cortex_mx_ee_systick.inc ****  *
   8:Generated_Source\PSoC5/ErikaOS_cortex_mx_ee_systick.inc ****  * ERIKA Enterprise is free software; you can redistribute it
   9:Generated_Source\PSoC5/ErikaOS_cortex_mx_ee_systick.inc ****  * and/or modify it under the terms of the GNU General Public License
  10:Generated_Source\PSoC5/ErikaOS_cortex_mx_ee_systick.inc ****  * version 2 as published by the Free Software Foundation,
  11:Generated_Source\PSoC5/ErikaOS_cortex_mx_ee_systick.inc ****  * (with a special exception described below).
  12:Generated_Source\PSoC5/ErikaOS_cortex_mx_ee_systick.inc ****  *
  13:Generated_Source\PSoC5/ErikaOS_cortex_mx_ee_systick.inc ****  * Linking this code statically or dynamically with other modules is
  14:Generated_Source\PSoC5/ErikaOS_cortex_mx_ee_systick.inc ****  * making a combined work based on this code.  Thus, the terms and
  15:Generated_Source\PSoC5/ErikaOS_cortex_mx_ee_systick.inc ****  * conditions of the GNU General Public License cover the whole
  16:Generated_Source\PSoC5/ErikaOS_cortex_mx_ee_systick.inc ****  * combination.
  17:Generated_Source\PSoC5/ErikaOS_cortex_mx_ee_systick.inc ****  *
  18:Generated_Source\PSoC5/ErikaOS_cortex_mx_ee_systick.inc ****  * As a special exception, the copyright holders of this library give you
  19:Generated_Source\PSoC5/ErikaOS_cortex_mx_ee_systick.inc ****  * permission to link this code with independent modules to produce an
  20:Generated_Source\PSoC5/ErikaOS_cortex_mx_ee_systick.inc ****  * executable, regardless of the license terms of these independent
  21:Generated_Source\PSoC5/ErikaOS_cortex_mx_ee_systick.inc ****  * modules, and to copy and distribute the resulting executable under
  22:Generated_Source\PSoC5/ErikaOS_cortex_mx_ee_systick.inc ****  * terms of your choice, provided that you also meet, for each linked
  23:Generated_Source\PSoC5/ErikaOS_cortex_mx_ee_systick.inc ****  * independent module, the terms and conditions of the license of that
  24:Generated_Source\PSoC5/ErikaOS_cortex_mx_ee_systick.inc ****  * module.  An independent module is a module which is not derived from
  25:Generated_Source\PSoC5/ErikaOS_cortex_mx_ee_systick.inc ****  * or based on this library.  If you modify this code, you may extend
  26:Generated_Source\PSoC5/ErikaOS_cortex_mx_ee_systick.inc ****  * this exception to your version of the code, but you are not
  27:Generated_Source\PSoC5/ErikaOS_cortex_mx_ee_systick.inc ****  * obligated to do so.  If you do not wish to do so, delete this
  28:Generated_Source\PSoC5/ErikaOS_cortex_mx_ee_systick.inc ****  * exception statement from your version.
  29:Generated_Source\PSoC5/ErikaOS_cortex_mx_ee_systick.inc ****  *
  30:Generated_Source\PSoC5/ErikaOS_cortex_mx_ee_systick.inc ****  * ERIKA Enterprise is distributed in the hope that it will be
  31:Generated_Source\PSoC5/ErikaOS_cortex_mx_ee_systick.inc ****  * useful, but WITHOUT ANY WARRANTY; without even the implied warranty
  32:Generated_Source\PSoC5/ErikaOS_cortex_mx_ee_systick.inc ****  * of MERCHANTABILITY or FITNESS FOR A PARTICULAR PURPOSE.  See the
  33:Generated_Source\PSoC5/ErikaOS_cortex_mx_ee_systick.inc ****  * GNU General Public License version 2 for more details.
  34:Generated_Source\PSoC5/ErikaOS_cortex_mx_ee_systick.inc ****  *
  35:Generated_Source\PSoC5/ErikaOS_cortex_mx_ee_systick.inc ****  * You should have received a copy of the GNU General Public License
  36:Generated_Source\PSoC5/ErikaOS_cortex_mx_ee_systick.inc ****  * version 2 along with ERIKA Enterprise; if not, write to the
ARM GAS  C:\Users\agila\AppData\Local\Temp\ccuh57Vd.s 			page 3


  37:Generated_Source\PSoC5/ErikaOS_cortex_mx_ee_systick.inc ****  * Free Software Foundation, Inc., 51 Franklin Street, Fifth Floor,
  38:Generated_Source\PSoC5/ErikaOS_cortex_mx_ee_systick.inc ****  * Boston, MA 02110-1301 USA.
  39:Generated_Source\PSoC5/ErikaOS_cortex_mx_ee_systick.inc ****  * ###*E*### */
  40:Generated_Source\PSoC5/ErikaOS_cortex_mx_ee_systick.inc **** 
  41:Generated_Source\PSoC5/ErikaOS_cortex_mx_ee_systick.inc **** /**
  42:Generated_Source\PSoC5/ErikaOS_cortex_mx_ee_systick.inc ****     @file	ee_systick.h
  43:Generated_Source\PSoC5/ErikaOS_cortex_mx_ee_systick.inc ****     @brief	SysTick system timer driver header file.
  44:Generated_Source\PSoC5/ErikaOS_cortex_mx_ee_systick.inc ****     @author	Giuseppe Serano
  45:Generated_Source\PSoC5/ErikaOS_cortex_mx_ee_systick.inc ****     @date	2012
  46:Generated_Source\PSoC5/ErikaOS_cortex_mx_ee_systick.inc **** 
  47:Generated_Source\PSoC5/ErikaOS_cortex_mx_ee_systick.inc **** **/
  48:Generated_Source\PSoC5/ErikaOS_cortex_mx_ee_systick.inc **** 
  49:Generated_Source\PSoC5/ErikaOS_cortex_mx_ee_systick.inc **** /*
  50:Generated_Source\PSoC5/ErikaOS_cortex_mx_ee_systick.inc ****  * PSoC Port and API Generation
  51:Generated_Source\PSoC5/ErikaOS_cortex_mx_ee_systick.inc ****  * Carlos Fernando Meier Martinez
  52:Generated_Source\PSoC5/ErikaOS_cortex_mx_ee_systick.inc ****  * Hochschule Darmstadt, Germany. 2017.
  53:Generated_Source\PSoC5/ErikaOS_cortex_mx_ee_systick.inc ****  */
  54:Generated_Source\PSoC5/ErikaOS_cortex_mx_ee_systick.inc **** 
  55:Generated_Source\PSoC5/ErikaOS_cortex_mx_ee_systick.inc **** #ifndef	__INCLUDE_CORTEX_MX_SYSTICK_H__
  56:Generated_Source\PSoC5/ErikaOS_cortex_mx_ee_systick.inc **** #define	__INCLUDE_CORTEX_MX_SYSTICK_H__
  57:Generated_Source\PSoC5/ErikaOS_cortex_mx_ee_systick.inc **** 
  58:Generated_Source\PSoC5/ErikaOS_cortex_mx_ee_systick.inc **** #ifdef	__USE_SYSTICK__
  59:Generated_Source\PSoC5/ErikaOS_cortex_mx_ee_systick.inc **** 
  60:Generated_Source\PSoC5/ErikaOS_cortex_mx_ee_systick.inc **** /** error value. No errors happened **/
  61:Generated_Source\PSoC5/ErikaOS_cortex_mx_ee_systick.inc **** #define	EE_SYSTICK_NO_ERRORS	0
  62:Generated_Source\PSoC5/ErikaOS_cortex_mx_ee_systick.inc **** /** error value. Wrong funtion arguments values **/
  63:Generated_Source\PSoC5/ErikaOS_cortex_mx_ee_systick.inc **** #define	EE_SYSTICK_ERR_BAD_ARGS	1
  64:Generated_Source\PSoC5/ErikaOS_cortex_mx_ee_systick.inc **** 
  65:Generated_Source\PSoC5/ErikaOS_cortex_mx_ee_systick.inc **** /**
  66:Generated_Source\PSoC5/ErikaOS_cortex_mx_ee_systick.inc ****     @brief Start SysTick.
  67:Generated_Source\PSoC5/ErikaOS_cortex_mx_ee_systick.inc **** 
  68:Generated_Source\PSoC5/ErikaOS_cortex_mx_ee_systick.inc ****     This will start the SysTick counter.  If an ISR has been defined, it is
  69:Generated_Source\PSoC5/ErikaOS_cortex_mx_ee_systick.inc ****     called when the SysTick counter rolls over.
  70:Generated_Source\PSoC5/ErikaOS_cortex_mx_ee_systick.inc **** 
  71:Generated_Source\PSoC5/ErikaOS_cortex_mx_ee_systick.inc ****     @note Calling this function will cause the SysTick counter to (re)commence
  72:Generated_Source\PSoC5/ErikaOS_cortex_mx_ee_systick.inc ****     counting from its current value.  The counter is not automatically reloaded
  73:Generated_Source\PSoC5/ErikaOS_cortex_mx_ee_systick.inc ****     with the period as specified in a previous call to EE_systick_set_period().
  74:Generated_Source\PSoC5/ErikaOS_cortex_mx_ee_systick.inc ****     If an immediate reload is required, the \b NVIC_ST_CURRENT register must be
  75:Generated_Source\PSoC5/ErikaOS_cortex_mx_ee_systick.inc ****     written to force this.  Any write to this register clears the SysTick
  76:Generated_Source\PSoC5/ErikaOS_cortex_mx_ee_systick.inc ****     counter to 0 and will cause a reload with the supplied period on the next
  77:Generated_Source\PSoC5/ErikaOS_cortex_mx_ee_systick.inc ****     clock.
  78:Generated_Source\PSoC5/ErikaOS_cortex_mx_ee_systick.inc ****  */
  79:Generated_Source\PSoC5/ErikaOS_cortex_mx_ee_systick.inc **** __INLINE__ void  EE_systick_start(void)
  80:Generated_Source\PSoC5/ErikaOS_cortex_mx_ee_systick.inc **** {
  81:Generated_Source\PSoC5/ErikaOS_cortex_mx_ee_systick.inc ****   NVIC_ST_CTRL_R |= NVIC_ST_CTRL_CLK_SRC | NVIC_ST_CTRL_ENABLE;
  82:Generated_Source\PSoC5/ErikaOS_cortex_mx_ee_systick.inc **** }
  83:Generated_Source\PSoC5/ErikaOS_cortex_mx_ee_systick.inc **** 
  84:Generated_Source\PSoC5/ErikaOS_cortex_mx_ee_systick.inc **** /**
  85:Generated_Source\PSoC5/ErikaOS_cortex_mx_ee_systick.inc ****     @brief Stop SysTick.
  86:Generated_Source\PSoC5/ErikaOS_cortex_mx_ee_systick.inc **** 
  87:Generated_Source\PSoC5/ErikaOS_cortex_mx_ee_systick.inc ****     This will stop the SysTick counter.  If an ISR has been defined, it will
  88:Generated_Source\PSoC5/ErikaOS_cortex_mx_ee_systick.inc ****     no longer be called until SysTick is restarted.
  89:Generated_Source\PSoC5/ErikaOS_cortex_mx_ee_systick.inc **** */
  90:Generated_Source\PSoC5/ErikaOS_cortex_mx_ee_systick.inc **** __INLINE__ void  EE_systick_stop(void)
  91:Generated_Source\PSoC5/ErikaOS_cortex_mx_ee_systick.inc **** {
  92:Generated_Source\PSoC5/ErikaOS_cortex_mx_ee_systick.inc ****   NVIC_ST_CTRL_R &= ~(NVIC_ST_CTRL_ENABLE);
  93:Generated_Source\PSoC5/ErikaOS_cortex_mx_ee_systick.inc **** }
ARM GAS  C:\Users\agila\AppData\Local\Temp\ccuh57Vd.s 			page 4


  94:Generated_Source\PSoC5/ErikaOS_cortex_mx_ee_systick.inc **** 
  95:Generated_Source\PSoC5/ErikaOS_cortex_mx_ee_systick.inc **** /**
  96:Generated_Source\PSoC5/ErikaOS_cortex_mx_ee_systick.inc ****     @brief Enables the SysTick interrupt.
  97:Generated_Source\PSoC5/ErikaOS_cortex_mx_ee_systick.inc **** 
  98:Generated_Source\PSoC5/ErikaOS_cortex_mx_ee_systick.inc ****     This function will enable the SysTick interrupt, allowing it to be
  99:Generated_Source\PSoC5/ErikaOS_cortex_mx_ee_systick.inc ****     reflected to the processor.
 100:Generated_Source\PSoC5/ErikaOS_cortex_mx_ee_systick.inc **** 
 101:Generated_Source\PSoC5/ErikaOS_cortex_mx_ee_systick.inc ****     @note The SysTick ISR does not need to clear the SysTick interrupt source as
 102:Generated_Source\PSoC5/ErikaOS_cortex_mx_ee_systick.inc ****     this is done automatically by NVIC when the interrupt ISR is called.
 103:Generated_Source\PSoC5/ErikaOS_cortex_mx_ee_systick.inc ****  */
 104:Generated_Source\PSoC5/ErikaOS_cortex_mx_ee_systick.inc **** __INLINE__ void  EE_systick_enable_int()
 105:Generated_Source\PSoC5/ErikaOS_cortex_mx_ee_systick.inc **** {
 106:Generated_Source\PSoC5/ErikaOS_cortex_mx_ee_systick.inc ****   NVIC_ST_CTRL_R |= NVIC_ST_CTRL_INTEN;
 107:Generated_Source\PSoC5/ErikaOS_cortex_mx_ee_systick.inc **** }
 108:Generated_Source\PSoC5/ErikaOS_cortex_mx_ee_systick.inc **** 
 109:Generated_Source\PSoC5/ErikaOS_cortex_mx_ee_systick.inc **** /**
 110:Generated_Source\PSoC5/ErikaOS_cortex_mx_ee_systick.inc ****     @brief Disables the SysTick interrupt.
 111:Generated_Source\PSoC5/ErikaOS_cortex_mx_ee_systick.inc **** 
 112:Generated_Source\PSoC5/ErikaOS_cortex_mx_ee_systick.inc ****     This function will disable the SysTick interrupt, preventing it from being
 113:Generated_Source\PSoC5/ErikaOS_cortex_mx_ee_systick.inc ****     reflected to the processor.
 114:Generated_Source\PSoC5/ErikaOS_cortex_mx_ee_systick.inc ****  */
 115:Generated_Source\PSoC5/ErikaOS_cortex_mx_ee_systick.inc **** __INLINE__ void  EE_systick_disable_int()
 116:Generated_Source\PSoC5/ErikaOS_cortex_mx_ee_systick.inc **** {
 117:Generated_Source\PSoC5/ErikaOS_cortex_mx_ee_systick.inc ****   NVIC_ST_CTRL_R &= ~(NVIC_ST_CTRL_INTEN);
 118:Generated_Source\PSoC5/ErikaOS_cortex_mx_ee_systick.inc **** }
 119:Generated_Source\PSoC5/ErikaOS_cortex_mx_ee_systick.inc **** 
 120:Generated_Source\PSoC5/ErikaOS_cortex_mx_ee_systick.inc **** /**
 121:Generated_Source\PSoC5/ErikaOS_cortex_mx_ee_systick.inc ****     @brief Sets the period of the SysTick counter.
 122:Generated_Source\PSoC5/ErikaOS_cortex_mx_ee_systick.inc **** 
 123:Generated_Source\PSoC5/ErikaOS_cortex_mx_ee_systick.inc ****     @param period is the number of clock ticks in each period of the SysTick
 124:Generated_Source\PSoC5/ErikaOS_cortex_mx_ee_systick.inc ****     counter; must be between 1 and 16,777,216, inclusive. If the \e period is
 125:Generated_Source\PSoC5/ErikaOS_cortex_mx_ee_systick.inc ****     out of range the function returns \b EE_SYSTICK_ERR_BAD_ARGS, else it will
 126:Generated_Source\PSoC5/ErikaOS_cortex_mx_ee_systick.inc ****     returns \b EE_SYSTICK_NO_ERRORS.
 127:Generated_Source\PSoC5/ErikaOS_cortex_mx_ee_systick.inc **** 
 128:Generated_Source\PSoC5/ErikaOS_cortex_mx_ee_systick.inc ****     This function sets the rate at which the SysTick counter wraps; this
 129:Generated_Source\PSoC5/ErikaOS_cortex_mx_ee_systick.inc ****     equates to the number of processor clocks between interrupts.
 130:Generated_Source\PSoC5/ErikaOS_cortex_mx_ee_systick.inc **** 
 131:Generated_Source\PSoC5/ErikaOS_cortex_mx_ee_systick.inc ****     @note Calling this function does not cause the SysTick counter to reload
 132:Generated_Source\PSoC5/ErikaOS_cortex_mx_ee_systick.inc ****     immediately.  If an immediate reload is required, the \b NVIC_ST_CURRENT
 133:Generated_Source\PSoC5/ErikaOS_cortex_mx_ee_systick.inc ****     register must be written.  Any write to this register clears the SysTick
 134:Generated_Source\PSoC5/ErikaOS_cortex_mx_ee_systick.inc ****     counter to 0 and will cause a reload with the \e period supplied here on
 135:Generated_Source\PSoC5/ErikaOS_cortex_mx_ee_systick.inc ****     the next clock after the SysTick is enabled.
 136:Generated_Source\PSoC5/ErikaOS_cortex_mx_ee_systick.inc ****  */
 137:Generated_Source\PSoC5/ErikaOS_cortex_mx_ee_systick.inc **** __INLINE__ EE_UREG  EE_systick_set_period(EE_UREG period)
 138:Generated_Source\PSoC5/ErikaOS_cortex_mx_ee_systick.inc **** {
 139:Generated_Source\PSoC5/ErikaOS_cortex_mx_ee_systick.inc ****   if ((period == NVIC_ST_RELOAD_S) || (period > NVIC_ST_RELOAD_M))
 140:Generated_Source\PSoC5/ErikaOS_cortex_mx_ee_systick.inc ****     return EE_SYSTICK_ERR_BAD_ARGS;
 141:Generated_Source\PSoC5/ErikaOS_cortex_mx_ee_systick.inc **** 
 142:Generated_Source\PSoC5/ErikaOS_cortex_mx_ee_systick.inc ****   NVIC_ST_RELOAD_R = period - 1;
  48              		.loc 2 142 0
  49 0004 45F6BF52 		movw	r2, #23999
  50 0008 054B     		ldr	r3, .L4
  51 000a 1A60     		str	r2, [r3]
  52              	.LVL1:
  53              	.LBE57:
  54              	.LBE56:
  55              	.LBB58:
ARM GAS  C:\Users\agila\AppData\Local\Temp\ccuh57Vd.s 			page 5


  56              	.LBB59:
 106:Generated_Source\PSoC5/ErikaOS_cortex_mx_ee_systick.inc **** }
  57              		.loc 2 106 0
  58 000c 054A     		ldr	r2, .L4+4
  59 000e 1368     		ldr	r3, [r2]
  60 0010 43F00203 		orr	r3, r3, #2
  61 0014 1360     		str	r3, [r2]
  62              	.L2:
  63              	.LBE59:
  64              	.LBE58:
  32:source\asw/main.c ****     
  33:source\asw/main.c ****     //Set systick period to 1 ms. Enable the INT and start it.
  34:source\asw/main.c **** 	EE_systick_set_period(MILLISECONDS_TO_TICKS(1, BCLK__BUS_CLK__HZ));
  35:source\asw/main.c **** 	EE_systick_enable_int();
  36:source\asw/main.c ****     
  37:source\asw/main.c ****     // Start Operating System
  38:source\asw/main.c ****     for(;;) 
  39:source\asw/main.c ****     {
  40:source\asw/main.c ****     	StartOS(OSDEFAULTAPPMODE);
  65              		.loc 1 40 0 discriminator 1
  66 0016 0020     		movs	r0, #0
  67 0018 FFF7FEFF 		bl	EE_oo_StartOS
  68              	.LVL2:
  69 001c FBE7     		b	.L2
  70              	.L5:
  71 001e 00BF     		.align	2
  72              	.L4:
  73 0020 14E000E0 		.word	-536813548
  74 0024 10E000E0 		.word	-536813552
  75              		.cfi_endproc
  76              	.LFE111:
  77              		.size	main, .-main
  78              		.section	.text.Functsk_init,"ax",%progbits
  79              		.align	2
  80              		.global	Functsk_init
  81              		.thumb
  82              		.thumb_func
  83              		.type	Functsk_init, %function
  84              	Functsk_init:
  85              	.LFB112:
  41:source\asw/main.c ****     }
  42:source\asw/main.c **** }
  43:source\asw/main.c **** 
  44:source\asw/main.c **** /********************************************************************************
  45:source\asw/main.c ****  * Task Definitions
  46:source\asw/main.c ****  ********************************************************************************/
  47:source\asw/main.c **** 
  48:source\asw/main.c **** TASK(tsk_init)
  49:source\asw/main.c **** {
  86              		.loc 1 49 0
  87              		.cfi_startproc
  88              		@ args = 0, pretend = 0, frame = 0
  89              		@ frame_needed = 0, uses_anonymous_args = 0
  90 0000 08B5     		push	{r3, lr}
  91              		.cfi_def_cfa_offset 8
  92              		.cfi_offset 3, -8
  93              		.cfi_offset 14, -4
ARM GAS  C:\Users\agila\AppData\Local\Temp\ccuh57Vd.s 			page 6


  50:source\asw/main.c ****     //Init MCAL Drivers   
  51:source\asw/main.c ****     SEVEN_Init();
  94              		.loc 1 51 0
  95 0002 FFF7FEFF 		bl	SEVEN_Init
  96              	.LVL3:
  52:source\asw/main.c ****     UART_LOG_Start(); 
  97              		.loc 1 52 0
  98 0006 FFF7FEFF 		bl	UART_LOG_Start
  99              	.LVL4:
  53:source\asw/main.c ****     TFT_init();
 100              		.loc 1 53 0
 101 000a FFF7FEFF 		bl	TFT_init
 102              	.LVL5:
  54:source\asw/main.c ****     TFT_setBacklight(255);
 103              		.loc 1 54 0
 104 000e FF20     		movs	r0, #255
 105 0010 FFF7FEFF 		bl	TFT_setBacklight
 106              	.LVL6:
  55:source\asw/main.c ****     LED_Init();
 107              		.loc 1 55 0
 108 0014 FFF7FEFF 		bl	LED_Init
 109              	.LVL7:
  56:source\asw/main.c ****     
  57:source\asw/main.c ****     TA_init(); // CySysTick causes issues with OS's cnt_systick
 110              		.loc 1 57 0
 111 0018 FFF7FEFF 		bl	TA_init
 112              	.LVL8:
  58:source\asw/main.c ****     
  59:source\asw/main.c ****     //Reconfigure ISRs with OS parameters.
  60:source\asw/main.c ****     //This line MUST be called after the hardware driver initialisation!
  61:source\asw/main.c ****     EE_system_init();
 113              		.loc 1 61 0
 114 001c FFF7FEFF 		bl	EE_system_init
 115              	.LVL9:
 116              	.LBB60:
 117              	.LBB61:
  81:Generated_Source\PSoC5/ErikaOS_cortex_mx_ee_systick.inc **** }
 118              		.loc 2 81 0
 119 0020 0A4A     		ldr	r2, .L8
 120 0022 1368     		ldr	r3, [r2]
 121 0024 43F00503 		orr	r3, r3, #5
 122 0028 1360     		str	r3, [r2]
 123              	.LBE61:
 124              	.LBE60:
  62:source\asw/main.c ****      
  63:source\asw/main.c ****     //Start SysTick
  64:source\asw/main.c **** 	//Must be done here, because otherwise the isr vector is not overwritten yet
  65:source\asw/main.c ****     EE_systick_start();  
  66:source\asw/main.c **** 	
  67:source\asw/main.c ****     //Start the cyclic alarms 
  68:source\asw/main.c ****     #ifdef CyclicTask
  69:source\asw/main.c ****     SetRelAlarm(alrm_Tick1m,1,1);
  70:source\asw/main.c ****     #endif
  71:source\asw/main.c ****     SetRelAlarm(alrm_arcadian,2,1); //10
 125              		.loc 1 71 0
 126 002a 0122     		movs	r2, #1
 127 002c 0221     		movs	r1, #2
ARM GAS  C:\Users\agila\AppData\Local\Temp\ccuh57Vd.s 			page 7


 128 002e 1046     		mov	r0, r2
 129 0030 FFF7FEFF 		bl	EE_oo_SetRelAlarm
 130              	.LVL10:
  72:source\asw/main.c **** 
  73:source\asw/main.c ****     //Activate all extended and the background task
  74:source\asw/main.c ****     ActivateTask(tsk_game);
 131              		.loc 1 74 0
 132 0034 0220     		movs	r0, #2
 133 0036 FFF7FEFF 		bl	EE_oo_ActivateTask
 134              	.LVL11:
  75:source\asw/main.c ****     ActivateTask(tsk_tft);
 135              		.loc 1 75 0
 136 003a 0320     		movs	r0, #3
 137 003c FFF7FEFF 		bl	EE_oo_ActivateTask
 138              	.LVL12:
  76:source\asw/main.c ****     ActivateTask(tsk_background);
 139              		.loc 1 76 0
 140 0040 0120     		movs	r0, #1
 141 0042 FFF7FEFF 		bl	EE_oo_ActivateTask
 142              	.LVL13:
  77:source\asw/main.c **** 
  78:source\asw/main.c ****     TerminateTask();
 143              		.loc 1 78 0
 144 0046 FFF7FEFF 		bl	EE_oo_TerminateTask
 145              	.LVL14:
 146 004a 08BD     		pop	{r3, pc}
 147              	.L9:
 148              		.align	2
 149              	.L8:
 150 004c 10E000E0 		.word	-536813552
 151              		.cfi_endproc
 152              	.LFE112:
 153              		.size	Functsk_init, .-Functsk_init
 154              		.section	.text.Functsk_game,"ax",%progbits
 155              		.align	2
 156              		.global	Functsk_game
 157              		.thumb
 158              		.thumb_func
 159              		.type	Functsk_game, %function
 160              	Functsk_game:
 161              	.LFB113:
  79:source\asw/main.c **** }
  80:source\asw/main.c **** 
  81:source\asw/main.c **** TASK(tsk_game)
  82:source\asw/main.c **** {
 162              		.loc 1 82 0
 163              		.cfi_startproc
 164              		@ args = 0, pretend = 0, frame = 8
 165              		@ frame_needed = 0, uses_anonymous_args = 0
 166 0000 00B5     		push	{lr}
 167              		.cfi_def_cfa_offset 4
 168              		.cfi_offset 14, -4
 169 0002 83B0     		sub	sp, sp, #12
 170              		.cfi_def_cfa_offset 16
 171              	.LVL15:
  83:source\asw/main.c ****     RC_t res = RC_SUCCESS;
  84:source\asw/main.c ****     
ARM GAS  C:\Users\agila\AppData\Local\Temp\ccuh57Vd.s 			page 8


  85:source\asw/main.c ****     EventMaskType ev = 0;
 172              		.loc 1 85 0
 173 0004 0023     		movs	r3, #0
 174 0006 0193     		str	r3, [sp, #4]
  86:source\asw/main.c ****     
  87:source\asw/main.c ****     // Upon start up
  88:source\asw/main.c ****     UART_LOG_PutString("\r\n\r\n============ Welcome to the Reaction Game ============\r\npress one
 175              		.loc 1 88 0
 176 0008 0848     		ldr	r0, .L13
 177 000a FFF7FEFF 		bl	UART_LOG_PutString
 178              	.LVL16:
 179              	.L11:
  89:source\asw/main.c ****     
  90:source\asw/main.c ****     while (1)
  91:source\asw/main.c ****     {
  92:source\asw/main.c ****         //Wait, read and clear the event
  93:source\asw/main.c ****         WaitEvent(ev_buttonLeft | ev_buttonRight | ev_timeout | ev_randomDone);
 180              		.loc 1 93 0 discriminator 1
 181 000e 0F20     		movs	r0, #15
 182 0010 FFF7FEFF 		bl	EE_oo_WaitEvent
 183              	.LVL17:
  94:source\asw/main.c ****         GetEvent(tsk_game, &ev);
 184              		.loc 1 94 0 discriminator 1
 185 0014 01A9     		add	r1, sp, #4
 186 0016 0220     		movs	r0, #2
 187 0018 FFF7FEFF 		bl	EE_oo_GetEvent
 188              	.LVL18:
  95:source\asw/main.c ****         ClearEvent(ev);       
 189              		.loc 1 95 0 discriminator 1
 190 001c 0198     		ldr	r0, [sp, #4]
 191 001e FFF7FEFF 		bl	EE_oo_ClearEvent
 192              	.LVL19:
  96:source\asw/main.c ****         // Optional: Translate RTOS events into enum events queue - Change of data type
  97:source\asw/main.c ****         /*GAME_event myEvent;
  98:source\asw/main.c ****         if(ev & ev_Button_1){
  99:source\asw/main.c ****             myEvent = GAME_EV_BUTTON_1;
 100:source\asw/main.c ****         }*/
 101:source\asw/main.c ****         res = RG_gameStateMachine(ev);
 193              		.loc 1 101 0 discriminator 1
 194 0022 0198     		ldr	r0, [sp, #4]
 195 0024 FFF7FEFF 		bl	RG_gameStateMachine
 196              	.LVL20:
 197 0028 F1E7     		b	.L11
 198              	.L14:
 199 002a 00BF     		.align	2
 200              	.L13:
 201 002c 00000000 		.word	.LC0
 202              		.cfi_endproc
 203              	.LFE113:
 204              		.size	Functsk_game, .-Functsk_game
 205              		.section	.text.Functsk_arcadian,"ax",%progbits
 206              		.align	2
 207              		.global	Functsk_arcadian
 208              		.thumb
 209              		.thumb_func
 210              		.type	Functsk_arcadian, %function
 211              	Functsk_arcadian:
ARM GAS  C:\Users\agila\AppData\Local\Temp\ccuh57Vd.s 			page 9


 212              	.LFB114:
 102:source\asw/main.c ****     }
 103:source\asw/main.c ****     
 104:source\asw/main.c ****     //Just in Case
 105:source\asw/main.c **** 	TerminateTask();
 106:source\asw/main.c **** }
 107:source\asw/main.c **** 
 108:source\asw/main.c **** #ifdef CyclicTask
 109:source\asw/main.c **** 
 110:source\asw/main.c **** TASK(tsk_timer) 
 111:source\asw/main.c **** {
 112:source\asw/main.c ****     //Random-Wait Countdown (1–3 seconds random delay)
 113:source\asw/main.c ****     randomTimeCheck();
 114:source\asw/main.c **** 
 115:source\asw/main.c ****     //Reaction Timeout Countdown
 116:source\asw/main.c ****     timeoutCheck();
 117:source\asw/main.c ****     
 118:source\asw/main.c ****     TerminateTask();
 119:source\asw/main.c **** }
 120:source\asw/main.c **** #endif
 121:source\asw/main.c **** 
 122:source\asw/main.c **** TASK(tsk_arcadian)
 123:source\asw/main.c **** {
 213              		.loc 1 123 0
 214              		.cfi_startproc
 215              		@ args = 0, pretend = 0, frame = 0
 216              		@ frame_needed = 0, uses_anonymous_args = 0
 217 0000 08B5     		push	{r3, lr}
 218              		.cfi_def_cfa_offset 8
 219              		.cfi_offset 3, -8
 220              		.cfi_offset 14, -4
 221              	.LVL21:
 124:source\asw/main.c ****     RC_t res = RC_SUCCESS;
 125:source\asw/main.c ****     
 126:source\asw/main.c ****     res = AL_fader(1, 2);
 222              		.loc 1 126 0
 223 0002 0221     		movs	r1, #2
 224 0004 0120     		movs	r0, #1
 225 0006 FFF7FEFF 		bl	AL_fader
 226              	.LVL22:
 127:source\asw/main.c ****     
 128:source\asw/main.c ****     res = AL_glower(1, 3);
 227              		.loc 1 128 0
 228 000a 0321     		movs	r1, #3
 229 000c 0120     		movs	r0, #1
 230 000e FFF7FEFF 		bl	AL_glower
 231              	.LVL23:
 129:source\asw/main.c ****     
 130:source\asw/main.c ****     TerminateTask();
 232              		.loc 1 130 0
 233 0012 FFF7FEFF 		bl	EE_oo_TerminateTask
 234              	.LVL24:
 235 0016 08BD     		pop	{r3, pc}
 236              		.cfi_endproc
 237              	.LFE114:
 238              		.size	Functsk_arcadian, .-Functsk_arcadian
 239              		.section	.text.Functsk_tft,"ax",%progbits
ARM GAS  C:\Users\agila\AppData\Local\Temp\ccuh57Vd.s 			page 10


 240              		.align	2
 241              		.global	Functsk_tft
 242              		.thumb
 243              		.thumb_func
 244              		.type	Functsk_tft, %function
 245              	Functsk_tft:
 246              	.LFB115:
 131:source\asw/main.c **** }
 132:source\asw/main.c **** 
 133:source\asw/main.c **** TASK(tsk_tft) //use set event
 134:source\asw/main.c **** {    
 247              		.loc 1 134 0
 248              		.cfi_startproc
 249              		@ args = 0, pretend = 0, frame = 0
 250              		@ frame_needed = 0, uses_anonymous_args = 0
 251 0000 08B5     		push	{r3, lr}
 252              		.cfi_def_cfa_offset 8
 253              		.cfi_offset 3, -8
 254              		.cfi_offset 14, -4
 135:source\asw/main.c ****     RG_displayTft();
 255              		.loc 1 135 0
 256 0002 FFF7FEFF 		bl	RG_displayTft
 257              	.LVL25:
 136:source\asw/main.c ****     
 137:source\asw/main.c ****     TerminateTask();
 258              		.loc 1 137 0
 259 0006 FFF7FEFF 		bl	EE_oo_TerminateTask
 260              	.LVL26:
 261 000a 08BD     		pop	{r3, pc}
 262              		.cfi_endproc
 263              	.LFE115:
 264              		.size	Functsk_tft, .-Functsk_tft
 265              		.section	.text.Functsk_background,"ax",%progbits
 266              		.align	2
 267              		.global	Functsk_background
 268              		.thumb
 269              		.thumb_func
 270              		.type	Functsk_background, %function
 271              	Functsk_background:
 272              	.LFB116:
 138:source\asw/main.c **** }
 139:source\asw/main.c **** 
 140:source\asw/main.c **** TASK(tsk_background)
 141:source\asw/main.c **** {
 273              		.loc 1 141 0
 274              		.cfi_startproc
 275              		@ Volatile: function does not return.
 276              		@ args = 0, pretend = 0, frame = 0
 277              		@ frame_needed = 0, uses_anonymous_args = 0
 278              		@ link register save eliminated.
 279              	.L20:
 142:source\asw/main.c ****     while(1)
 143:source\asw/main.c ****     {
 144:source\asw/main.c ****         //do something with low prioroty
 145:source\asw/main.c ****         __asm("nop");
 280              		.loc 1 145 0 discriminator 1
 281              		.syntax unified
ARM GAS  C:\Users\agila\AppData\Local\Temp\ccuh57Vd.s 			page 11


 282              	@ 145 "source\asw\main.c" 1
 283 0000 00BF     		nop
 284              	@ 0 "" 2
 285              		.thumb
 286              		.syntax unified
 287 0002 FDE7     		b	.L20
 288              		.cfi_endproc
 289              	.LFE116:
 290              		.size	Functsk_background, .-Functsk_background
 291              		.section	.text.ISR2_systick_handler,"ax",%progbits
 292              		.align	2
 293              		.global	ISR2_systick_handler
 294              		.thumb
 295              		.thumb_func
 296              		.type	ISR2_systick_handler, %function
 297              	ISR2_systick_handler:
 298              	.LFB118:
 146:source\asw/main.c ****     }
 147:source\asw/main.c **** }
 148:source\asw/main.c **** 
 149:source\asw/main.c **** /********************************************************************************
 150:source\asw/main.c ****  * ISR Definitions
 151:source\asw/main.c ****  ********************************************************************************/
 152:source\asw/main.c **** 
 153:source\asw/main.c **** //ISR which will increment the systick counter every ms
 154:source\asw/main.c **** ISR(systick_handler)
 155:source\asw/main.c **** {
 299              		.loc 1 155 0
 300              		.cfi_startproc
 301              		@ args = 0, pretend = 0, frame = 0
 302              		@ frame_needed = 0, uses_anonymous_args = 0
 303 0000 08B5     		push	{r3, lr}
 304              		.cfi_def_cfa_offset 8
 305              		.cfi_offset 3, -8
 306              		.cfi_offset 14, -4
 156:source\asw/main.c ****     CounterTick(cnt_systick);
 307              		.loc 1 156 0
 308 0002 0020     		movs	r0, #0
 309 0004 FFF7FEFF 		bl	EE_oo_IncrementCounter
 310              	.LVL27:
 311 0008 08BD     		pop	{r3, pc}
 312              		.cfi_endproc
 313              	.LFE118:
 314              		.size	ISR2_systick_handler, .-ISR2_systick_handler
 315 000a 00BF     		.section	.text.systick_handler,"ax",%progbits
 316              		.align	2
 317              		.global	systick_handler
 318              		.thumb
 319              		.thumb_func
 320              		.type	systick_handler, %function
 321              	systick_handler:
 322              	.LFB117:
 154:source\asw/main.c **** {
 323              		.loc 1 154 0
 324              		.cfi_startproc
 325              		@ Stack Align: May be called with mis-aligned SP.
 326              		@ args = 0, pretend = 0, frame = 0
ARM GAS  C:\Users\agila\AppData\Local\Temp\ccuh57Vd.s 			page 12


 327              		@ frame_needed = 0, uses_anonymous_args = 0
 328 0000 6846     		mov	r0, sp
 329              		.cfi_register 13, 0
 330 0002 20F00701 		bic	r1, r0, #7
 331 0006 8D46     		mov	sp, r1
 332 0008 19B5     		push	{r0, r3, r4, lr}
 333              		.cfi_def_cfa_offset 16
 334              		.cfi_offset 13, -16
 335              		.cfi_offset 3, -12
 336              		.cfi_offset 4, -8
 337              		.cfi_offset 14, -4
 338              	.LVL28:
 339              	.LBB86:
 340              	.LBB87:
 341              		.file 3 "Generated_Source\\PSoC5/ErikaOS_cortex_mx_ee_cpu.inc"
   1:Generated_Source\PSoC5/ErikaOS_cortex_mx_ee_cpu.inc **** /* ###*B*###
   2:Generated_Source\PSoC5/ErikaOS_cortex_mx_ee_cpu.inc ****  * ERIKA Enterprise - a tiny RTOS for small microcontrollers
   3:Generated_Source\PSoC5/ErikaOS_cortex_mx_ee_cpu.inc ****  *
   4:Generated_Source\PSoC5/ErikaOS_cortex_mx_ee_cpu.inc ****  * Copyright (C) 2002-2011  Evidence Srl
   5:Generated_Source\PSoC5/ErikaOS_cortex_mx_ee_cpu.inc ****  *
   6:Generated_Source\PSoC5/ErikaOS_cortex_mx_ee_cpu.inc ****  * This file is part of ERIKA Enterprise.
   7:Generated_Source\PSoC5/ErikaOS_cortex_mx_ee_cpu.inc ****  *
   8:Generated_Source\PSoC5/ErikaOS_cortex_mx_ee_cpu.inc ****  * ERIKA Enterprise is free software; you can redistribute it
   9:Generated_Source\PSoC5/ErikaOS_cortex_mx_ee_cpu.inc ****  * and/or modify it under the terms of the GNU General Public License
  10:Generated_Source\PSoC5/ErikaOS_cortex_mx_ee_cpu.inc ****  * version 2 as published by the Free Software Foundation, 
  11:Generated_Source\PSoC5/ErikaOS_cortex_mx_ee_cpu.inc ****  * (with a special exception described below).
  12:Generated_Source\PSoC5/ErikaOS_cortex_mx_ee_cpu.inc ****  *
  13:Generated_Source\PSoC5/ErikaOS_cortex_mx_ee_cpu.inc ****  * Linking this code statically or dynamically with other modules is
  14:Generated_Source\PSoC5/ErikaOS_cortex_mx_ee_cpu.inc ****  * making a combined work based on this code.  Thus, the terms and
  15:Generated_Source\PSoC5/ErikaOS_cortex_mx_ee_cpu.inc ****  * conditions of the GNU General Public License cover the whole
  16:Generated_Source\PSoC5/ErikaOS_cortex_mx_ee_cpu.inc ****  * combination.
  17:Generated_Source\PSoC5/ErikaOS_cortex_mx_ee_cpu.inc ****  *
  18:Generated_Source\PSoC5/ErikaOS_cortex_mx_ee_cpu.inc ****  * As a special exception, the copyright holders of this library give you
  19:Generated_Source\PSoC5/ErikaOS_cortex_mx_ee_cpu.inc ****  * permission to link this code with independent modules to produce an
  20:Generated_Source\PSoC5/ErikaOS_cortex_mx_ee_cpu.inc ****  * executable, regardless of the license terms of these independent
  21:Generated_Source\PSoC5/ErikaOS_cortex_mx_ee_cpu.inc ****  * modules, and to copy and distribute the resulting executable under
  22:Generated_Source\PSoC5/ErikaOS_cortex_mx_ee_cpu.inc ****  * terms of your choice, provided that you also meet, for each linked
  23:Generated_Source\PSoC5/ErikaOS_cortex_mx_ee_cpu.inc ****  * independent module, the terms and conditions of the license of that
  24:Generated_Source\PSoC5/ErikaOS_cortex_mx_ee_cpu.inc ****  * module.  An independent module is a module which is not derived from
  25:Generated_Source\PSoC5/ErikaOS_cortex_mx_ee_cpu.inc ****  * or based on this library.  If you modify this code, you may extend
  26:Generated_Source\PSoC5/ErikaOS_cortex_mx_ee_cpu.inc ****  * this exception to your version of the code, but you are not
  27:Generated_Source\PSoC5/ErikaOS_cortex_mx_ee_cpu.inc ****  * obligated to do so.  If you do not wish to do so, delete this
  28:Generated_Source\PSoC5/ErikaOS_cortex_mx_ee_cpu.inc ****  * exception statement from your version.
  29:Generated_Source\PSoC5/ErikaOS_cortex_mx_ee_cpu.inc ****  *
  30:Generated_Source\PSoC5/ErikaOS_cortex_mx_ee_cpu.inc ****  * ERIKA Enterprise is distributed in the hope that it will be
  31:Generated_Source\PSoC5/ErikaOS_cortex_mx_ee_cpu.inc ****  * useful, but WITHOUT ANY WARRANTY; without even the implied warranty
  32:Generated_Source\PSoC5/ErikaOS_cortex_mx_ee_cpu.inc ****  * of MERCHANTABILITY or FITNESS FOR A PARTICULAR PURPOSE.  See the
  33:Generated_Source\PSoC5/ErikaOS_cortex_mx_ee_cpu.inc ****  * GNU General Public License version 2 for more details.
  34:Generated_Source\PSoC5/ErikaOS_cortex_mx_ee_cpu.inc ****  *
  35:Generated_Source\PSoC5/ErikaOS_cortex_mx_ee_cpu.inc ****  * You should have received a copy of the GNU General Public License
  36:Generated_Source\PSoC5/ErikaOS_cortex_mx_ee_cpu.inc ****  * version 2 along with ERIKA Enterprise; if not, write to the
  37:Generated_Source\PSoC5/ErikaOS_cortex_mx_ee_cpu.inc ****  * Free Software Foundation, Inc., 51 Franklin Street, Fifth Floor,
  38:Generated_Source\PSoC5/ErikaOS_cortex_mx_ee_cpu.inc ****  * Boston, MA 02110-1301 USA.
  39:Generated_Source\PSoC5/ErikaOS_cortex_mx_ee_cpu.inc ****  * ###*E*### */
  40:Generated_Source\PSoC5/ErikaOS_cortex_mx_ee_cpu.inc **** 
  41:Generated_Source\PSoC5/ErikaOS_cortex_mx_ee_cpu.inc **** /** 
  42:Generated_Source\PSoC5/ErikaOS_cortex_mx_ee_cpu.inc **** 	@file ee_cpu.h
ARM GAS  C:\Users\agila\AppData\Local\Temp\ccuh57Vd.s 			page 13


  43:Generated_Source\PSoC5/ErikaOS_cortex_mx_ee_cpu.inc **** 	@brief CPU-dependent part of HAL. Derived from pkg/cpu/pic30/inc/ee_cpu.h
  44:Generated_Source\PSoC5/ErikaOS_cortex_mx_ee_cpu.inc **** 	@author Gianluca Franchino
  45:Generated_Source\PSoC5/ErikaOS_cortex_mx_ee_cpu.inc **** 	@author Giuseppe Serano
  46:Generated_Source\PSoC5/ErikaOS_cortex_mx_ee_cpu.inc **** 	@date 2011
  47:Generated_Source\PSoC5/ErikaOS_cortex_mx_ee_cpu.inc **** */ 
  48:Generated_Source\PSoC5/ErikaOS_cortex_mx_ee_cpu.inc ****     
  49:Generated_Source\PSoC5/ErikaOS_cortex_mx_ee_cpu.inc **** /*
  50:Generated_Source\PSoC5/ErikaOS_cortex_mx_ee_cpu.inc ****  * PSoC Port and API Generation
  51:Generated_Source\PSoC5/ErikaOS_cortex_mx_ee_cpu.inc ****  * Carlos Fernando Meier Martinez
  52:Generated_Source\PSoC5/ErikaOS_cortex_mx_ee_cpu.inc ****  * Hochschule Darmstadt, Germany. 2017.
  53:Generated_Source\PSoC5/ErikaOS_cortex_mx_ee_cpu.inc ****  */
  54:Generated_Source\PSoC5/ErikaOS_cortex_mx_ee_cpu.inc **** 
  55:Generated_Source\PSoC5/ErikaOS_cortex_mx_ee_cpu.inc **** #ifndef __INCLUDE_CORTEX_MX_EE_CPU_H__
  56:Generated_Source\PSoC5/ErikaOS_cortex_mx_ee_cpu.inc **** #define __INCLUDE_CORTEX_MX_EE_CPU_H__
  57:Generated_Source\PSoC5/ErikaOS_cortex_mx_ee_cpu.inc **** 
  58:Generated_Source\PSoC5/ErikaOS_cortex_mx_ee_cpu.inc **** #include "ErikaOS_eecfg.inc"
  59:Generated_Source\PSoC5/ErikaOS_cortex_mx_ee_cpu.inc **** 
  60:Generated_Source\PSoC5/ErikaOS_cortex_mx_ee_cpu.inc **** 
  61:Generated_Source\PSoC5/ErikaOS_cortex_mx_ee_cpu.inc **** #ifdef __GNU__
  62:Generated_Source\PSoC5/ErikaOS_cortex_mx_ee_cpu.inc **** #include "ErikaOS_common_ee_compiler_gcc.inc"
  63:Generated_Source\PSoC5/ErikaOS_cortex_mx_ee_cpu.inc **** #endif
  64:Generated_Source\PSoC5/ErikaOS_cortex_mx_ee_cpu.inc **** 
  65:Generated_Source\PSoC5/ErikaOS_cortex_mx_ee_cpu.inc **** /* Initial stack offset (in words): Used in multistack. */
  66:Generated_Source\PSoC5/ErikaOS_cortex_mx_ee_cpu.inc **** #ifndef CORTEX_MX_INIT_TOS_OFFSET
  67:Generated_Source\PSoC5/ErikaOS_cortex_mx_ee_cpu.inc **** #define CORTEX_MX_INIT_TOS_OFFSET 10
  68:Generated_Source\PSoC5/ErikaOS_cortex_mx_ee_cpu.inc **** #endif
  69:Generated_Source\PSoC5/ErikaOS_cortex_mx_ee_cpu.inc **** 
  70:Generated_Source\PSoC5/ErikaOS_cortex_mx_ee_cpu.inc **** /*************************************************************************
  71:Generated_Source\PSoC5/ErikaOS_cortex_mx_ee_cpu.inc ****  HAL Types and structures
  72:Generated_Source\PSoC5/ErikaOS_cortex_mx_ee_cpu.inc ****  *************************************************************************/
  73:Generated_Source\PSoC5/ErikaOS_cortex_mx_ee_cpu.inc **** 
  74:Generated_Source\PSoC5/ErikaOS_cortex_mx_ee_cpu.inc **** /* Primitive data types */
  75:Generated_Source\PSoC5/ErikaOS_cortex_mx_ee_cpu.inc **** #include "ErikaOS_common_ee_types.inc"
  76:Generated_Source\PSoC5/ErikaOS_cortex_mx_ee_cpu.inc **** 
  77:Generated_Source\PSoC5/ErikaOS_cortex_mx_ee_cpu.inc **** typedef EE_UINT32 EE_UREG;
  78:Generated_Source\PSoC5/ErikaOS_cortex_mx_ee_cpu.inc **** typedef EE_INT32  EE_SREG;
  79:Generated_Source\PSoC5/ErikaOS_cortex_mx_ee_cpu.inc **** typedef EE_UINT32 EE_FREG;
  80:Generated_Source\PSoC5/ErikaOS_cortex_mx_ee_cpu.inc **** #define EE_UREG_SIZE 4
  81:Generated_Source\PSoC5/ErikaOS_cortex_mx_ee_cpu.inc **** 
  82:Generated_Source\PSoC5/ErikaOS_cortex_mx_ee_cpu.inc **** /* boolean type */
  83:Generated_Source\PSoC5/ErikaOS_cortex_mx_ee_cpu.inc **** #ifndef EE_TYPEBOOL
  84:Generated_Source\PSoC5/ErikaOS_cortex_mx_ee_cpu.inc **** typedef EE_UREG EE_TYPEBOOL;
  85:Generated_Source\PSoC5/ErikaOS_cortex_mx_ee_cpu.inc **** #endif
  86:Generated_Source\PSoC5/ErikaOS_cortex_mx_ee_cpu.inc **** 
  87:Generated_Source\PSoC5/ErikaOS_cortex_mx_ee_cpu.inc **** /* boolean true define */
  88:Generated_Source\PSoC5/ErikaOS_cortex_mx_ee_cpu.inc **** #ifndef EE_TRUE
  89:Generated_Source\PSoC5/ErikaOS_cortex_mx_ee_cpu.inc **** #define EE_TRUE ((EE_TYPEBOOL)1U)
  90:Generated_Source\PSoC5/ErikaOS_cortex_mx_ee_cpu.inc **** #endif
  91:Generated_Source\PSoC5/ErikaOS_cortex_mx_ee_cpu.inc **** 
  92:Generated_Source\PSoC5/ErikaOS_cortex_mx_ee_cpu.inc **** /* boolean false define */
  93:Generated_Source\PSoC5/ErikaOS_cortex_mx_ee_cpu.inc **** #ifndef EE_FALSE
  94:Generated_Source\PSoC5/ErikaOS_cortex_mx_ee_cpu.inc **** #define EE_FALSE ((EE_TYPEBOOL)0U)
  95:Generated_Source\PSoC5/ErikaOS_cortex_mx_ee_cpu.inc **** #endif
  96:Generated_Source\PSoC5/ErikaOS_cortex_mx_ee_cpu.inc **** 
  97:Generated_Source\PSoC5/ErikaOS_cortex_mx_ee_cpu.inc **** #define	EE_HWREG_PTR		volatile EE_UREG *
  98:Generated_Source\PSoC5/ErikaOS_cortex_mx_ee_cpu.inc **** #define	EE_HWREG_ADDR(x)	((EE_HWREG_PTR)(x))
  99:Generated_Source\PSoC5/ErikaOS_cortex_mx_ee_cpu.inc **** #define	EE_HWREG(x)		(*EE_HWREG_ADDR(x))
ARM GAS  C:\Users\agila\AppData\Local\Temp\ccuh57Vd.s 			page 14


 100:Generated_Source\PSoC5/ErikaOS_cortex_mx_ee_cpu.inc **** 
 101:Generated_Source\PSoC5/ErikaOS_cortex_mx_ee_cpu.inc **** #ifdef __GNU__
 102:Generated_Source\PSoC5/ErikaOS_cortex_mx_ee_cpu.inc **** 
 103:Generated_Source\PSoC5/ErikaOS_cortex_mx_ee_cpu.inc **** /* Get current SP */
 104:Generated_Source\PSoC5/ErikaOS_cortex_mx_ee_cpu.inc **** __INLINE__ EE_UINT32  __current_sp(void)
 105:Generated_Source\PSoC5/ErikaOS_cortex_mx_ee_cpu.inc **** {
 106:Generated_Source\PSoC5/ErikaOS_cortex_mx_ee_cpu.inc **** EE_UINT32 temp;
 107:Generated_Source\PSoC5/ErikaOS_cortex_mx_ee_cpu.inc **** __ASM ("mov %0, sp" : "=r" (temp) : );
 108:Generated_Source\PSoC5/ErikaOS_cortex_mx_ee_cpu.inc **** return temp;
 109:Generated_Source\PSoC5/ErikaOS_cortex_mx_ee_cpu.inc **** }
 110:Generated_Source\PSoC5/ErikaOS_cortex_mx_ee_cpu.inc **** 
 111:Generated_Source\PSoC5/ErikaOS_cortex_mx_ee_cpu.inc **** /* Set a breakpoint */
 112:Generated_Source\PSoC5/ErikaOS_cortex_mx_ee_cpu.inc **** #define __breakpoint(value)	__ASM ("bkpt "#value)
 113:Generated_Source\PSoC5/ErikaOS_cortex_mx_ee_cpu.inc **** 
 114:Generated_Source\PSoC5/ErikaOS_cortex_mx_ee_cpu.inc **** #endif
 115:Generated_Source\PSoC5/ErikaOS_cortex_mx_ee_cpu.inc **** 
 116:Generated_Source\PSoC5/ErikaOS_cortex_mx_ee_cpu.inc **** /* ISR Priority representation type */
 117:Generated_Source\PSoC5/ErikaOS_cortex_mx_ee_cpu.inc **** typedef EE_UREG EE_TYPEISR2PRIO;
 118:Generated_Source\PSoC5/ErikaOS_cortex_mx_ee_cpu.inc **** 
 119:Generated_Source\PSoC5/ErikaOS_cortex_mx_ee_cpu.inc **** /* Thread IDs */
 120:Generated_Source\PSoC5/ErikaOS_cortex_mx_ee_cpu.inc **** typedef EE_INT32 EE_TID;
 121:Generated_Source\PSoC5/ErikaOS_cortex_mx_ee_cpu.inc **** 
 122:Generated_Source\PSoC5/ErikaOS_cortex_mx_ee_cpu.inc **** /* Thread IDs - unsigned version*/
 123:Generated_Source\PSoC5/ErikaOS_cortex_mx_ee_cpu.inc **** typedef EE_UINT32 EE_UTID;
 124:Generated_Source\PSoC5/ErikaOS_cortex_mx_ee_cpu.inc **** 
 125:Generated_Source\PSoC5/ErikaOS_cortex_mx_ee_cpu.inc **** /* Used by the common layer to decide whether to start a new thread */
 126:Generated_Source\PSoC5/ErikaOS_cortex_mx_ee_cpu.inc **** #define TID_IS_STACKED_MARK 0x80000000
 127:Generated_Source\PSoC5/ErikaOS_cortex_mx_ee_cpu.inc **** 
 128:Generated_Source\PSoC5/ErikaOS_cortex_mx_ee_cpu.inc **** /* EE_TYPEIRQ is currently unused */
 129:Generated_Source\PSoC5/ErikaOS_cortex_mx_ee_cpu.inc **** 
 130:Generated_Source\PSoC5/ErikaOS_cortex_mx_ee_cpu.inc **** /* XXX: define EE_TIME? */
 131:Generated_Source\PSoC5/ErikaOS_cortex_mx_ee_cpu.inc **** 
 132:Generated_Source\PSoC5/ErikaOS_cortex_mx_ee_cpu.inc **** /* Use the "standard" implementation */
 133:Generated_Source\PSoC5/ErikaOS_cortex_mx_ee_cpu.inc **** #include "ErikaOS_common_ee_hal_structs.inc"
 134:Generated_Source\PSoC5/ErikaOS_cortex_mx_ee_cpu.inc **** 
 135:Generated_Source\PSoC5/ErikaOS_cortex_mx_ee_cpu.inc **** /******************************************************************************
 136:Generated_Source\PSoC5/ErikaOS_cortex_mx_ee_cpu.inc ****  Application dependent data types
 137:Generated_Source\PSoC5/ErikaOS_cortex_mx_ee_cpu.inc ****  ******************************************************************************/
 138:Generated_Source\PSoC5/ErikaOS_cortex_mx_ee_cpu.inc **** 
 139:Generated_Source\PSoC5/ErikaOS_cortex_mx_ee_cpu.inc **** #ifdef	__HAS_TYPES_H__
 140:Generated_Source\PSoC5/ErikaOS_cortex_mx_ee_cpu.inc **** #include	"types.h"
 141:Generated_Source\PSoC5/ErikaOS_cortex_mx_ee_cpu.inc **** #endif
 142:Generated_Source\PSoC5/ErikaOS_cortex_mx_ee_cpu.inc **** 
 143:Generated_Source\PSoC5/ErikaOS_cortex_mx_ee_cpu.inc **** /******************************************************************************
 144:Generated_Source\PSoC5/ErikaOS_cortex_mx_ee_cpu.inc ****  CPU Peripherals
 145:Generated_Source\PSoC5/ErikaOS_cortex_mx_ee_cpu.inc ****  ******************************************************************************/
 146:Generated_Source\PSoC5/ErikaOS_cortex_mx_ee_cpu.inc **** 
 147:Generated_Source\PSoC5/ErikaOS_cortex_mx_ee_cpu.inc **** #ifdef __CORTEX_MX__
 148:Generated_Source\PSoC5/ErikaOS_cortex_mx_ee_cpu.inc **** #include "ErikaOS_cortex_mx_ee_nvic.inc"
 149:Generated_Source\PSoC5/ErikaOS_cortex_mx_ee_cpu.inc **** #include "ErikaOS_cortex_mx_ee_systick.inc"
 150:Generated_Source\PSoC5/ErikaOS_cortex_mx_ee_cpu.inc **** #endif
 151:Generated_Source\PSoC5/ErikaOS_cortex_mx_ee_cpu.inc **** 
 152:Generated_Source\PSoC5/ErikaOS_cortex_mx_ee_cpu.inc **** /******************************************************************************
 153:Generated_Source\PSoC5/ErikaOS_cortex_mx_ee_cpu.inc ****  HAL Variables
 154:Generated_Source\PSoC5/ErikaOS_cortex_mx_ee_cpu.inc ****  ******************************************************************************/
 155:Generated_Source\PSoC5/ErikaOS_cortex_mx_ee_cpu.inc **** 
 156:Generated_Source\PSoC5/ErikaOS_cortex_mx_ee_cpu.inc **** #ifdef __MULTI__
ARM GAS  C:\Users\agila\AppData\Local\Temp\ccuh57Vd.s 			page 15


 157:Generated_Source\PSoC5/ErikaOS_cortex_mx_ee_cpu.inc **** 
 158:Generated_Source\PSoC5/ErikaOS_cortex_mx_ee_cpu.inc **** /* Top-of-stack of each private stack */
 159:Generated_Source\PSoC5/ErikaOS_cortex_mx_ee_cpu.inc **** extern struct EE_TOS EE_cortex_mx_system_tos[];
 160:Generated_Source\PSoC5/ErikaOS_cortex_mx_ee_cpu.inc **** //#define	EE_std_system_tos EE_cortex_mx_system_tos
 161:Generated_Source\PSoC5/ErikaOS_cortex_mx_ee_cpu.inc **** 
 162:Generated_Source\PSoC5/ErikaOS_cortex_mx_ee_cpu.inc **** /* Index of the current stack */
 163:Generated_Source\PSoC5/ErikaOS_cortex_mx_ee_cpu.inc **** extern EE_UREG EE_cortex_mx_active_tos;
 164:Generated_Source\PSoC5/ErikaOS_cortex_mx_ee_cpu.inc **** #define	EE_hal_active_tos EE_cortex_mx_active_tos
 165:Generated_Source\PSoC5/ErikaOS_cortex_mx_ee_cpu.inc **** 
 166:Generated_Source\PSoC5/ErikaOS_cortex_mx_ee_cpu.inc **** /*extern	EE_UREG EE_pic30_thread_tos[];
 167:Generated_Source\PSoC5/ErikaOS_cortex_mx_ee_cpu.inc **** #define	EE_std_thread_tos EE_pic30_thread_tos */
 168:Generated_Source\PSoC5/ErikaOS_cortex_mx_ee_cpu.inc **** #endif /* __MULTI__ */
 169:Generated_Source\PSoC5/ErikaOS_cortex_mx_ee_cpu.inc **** 
 170:Generated_Source\PSoC5/ErikaOS_cortex_mx_ee_cpu.inc **** /*********************************************************************
 171:Generated_Source\PSoC5/ErikaOS_cortex_mx_ee_cpu.inc ****  Cortex M0 interrupt disabling/enabling
 172:Generated_Source\PSoC5/ErikaOS_cortex_mx_ee_cpu.inc ****  *********************************************************************/
 173:Generated_Source\PSoC5/ErikaOS_cortex_mx_ee_cpu.inc **** 
 174:Generated_Source\PSoC5/ErikaOS_cortex_mx_ee_cpu.inc **** /* Used to check the value returned by EE_cortex_mx_disableIRQ */
 175:Generated_Source\PSoC5/ErikaOS_cortex_mx_ee_cpu.inc **** #define EE_cortex_mx_are_IRQs_enabled(ie) ((ie) ^ 1)
 176:Generated_Source\PSoC5/ErikaOS_cortex_mx_ee_cpu.inc **** 
 177:Generated_Source\PSoC5/ErikaOS_cortex_mx_ee_cpu.inc **** /**
 178:Generated_Source\PSoC5/ErikaOS_cortex_mx_ee_cpu.inc ****  * Enable interrupts
 179:Generated_Source\PSoC5/ErikaOS_cortex_mx_ee_cpu.inc ****  */
 180:Generated_Source\PSoC5/ErikaOS_cortex_mx_ee_cpu.inc **** __INLINE__ void  EE_cortex_mx_enableIRQ(void)
 181:Generated_Source\PSoC5/ErikaOS_cortex_mx_ee_cpu.inc **** {
 182:Generated_Source\PSoC5/ErikaOS_cortex_mx_ee_cpu.inc **** #ifdef __IAR__
 183:Generated_Source\PSoC5/ErikaOS_cortex_mx_ee_cpu.inc **** 	__ASM ("cpsie i");
 184:Generated_Source\PSoC5/ErikaOS_cortex_mx_ee_cpu.inc **** #else	/* __IAR__ */
 185:Generated_Source\PSoC5/ErikaOS_cortex_mx_ee_cpu.inc **** #ifdef __CCS__
 186:Generated_Source\PSoC5/ErikaOS_cortex_mx_ee_cpu.inc **** 	__ASM ("    cpsie    i\n");
 187:Generated_Source\PSoC5/ErikaOS_cortex_mx_ee_cpu.inc **** #else	/* __CCS__ */
 188:Generated_Source\PSoC5/ErikaOS_cortex_mx_ee_cpu.inc **** #ifdef __KEIL__
 189:Generated_Source\PSoC5/ErikaOS_cortex_mx_ee_cpu.inc **** 	__enable_irq();
 190:Generated_Source\PSoC5/ErikaOS_cortex_mx_ee_cpu.inc **** #else	/* __KEIL__ */
 191:Generated_Source\PSoC5/ErikaOS_cortex_mx_ee_cpu.inc **** 	__ASM volatile("cpsie i");
 192:Generated_Source\PSoC5/ErikaOS_cortex_mx_ee_cpu.inc **** #endif	/* !__KEIL__ */
 193:Generated_Source\PSoC5/ErikaOS_cortex_mx_ee_cpu.inc **** #endif	/* !__CCS__ */
 194:Generated_Source\PSoC5/ErikaOS_cortex_mx_ee_cpu.inc **** #endif	/* !__IAR__ */
 195:Generated_Source\PSoC5/ErikaOS_cortex_mx_ee_cpu.inc **** }
 196:Generated_Source\PSoC5/ErikaOS_cortex_mx_ee_cpu.inc **** 
 197:Generated_Source\PSoC5/ErikaOS_cortex_mx_ee_cpu.inc **** /**
 198:Generated_Source\PSoC5/ErikaOS_cortex_mx_ee_cpu.inc ****  * Disable interrupts
 199:Generated_Source\PSoC5/ErikaOS_cortex_mx_ee_cpu.inc ****  */
 200:Generated_Source\PSoC5/ErikaOS_cortex_mx_ee_cpu.inc **** __INLINE__ void  EE_cortex_mx_disableIRQ(void)
 201:Generated_Source\PSoC5/ErikaOS_cortex_mx_ee_cpu.inc **** {
 202:Generated_Source\PSoC5/ErikaOS_cortex_mx_ee_cpu.inc **** #ifdef __IAR__
 203:Generated_Source\PSoC5/ErikaOS_cortex_mx_ee_cpu.inc **** 	__ASM ("cpsid i");
 204:Generated_Source\PSoC5/ErikaOS_cortex_mx_ee_cpu.inc **** #else	/* __IAR__ */
 205:Generated_Source\PSoC5/ErikaOS_cortex_mx_ee_cpu.inc **** #ifdef __CCS__
 206:Generated_Source\PSoC5/ErikaOS_cortex_mx_ee_cpu.inc **** 	__ASM ("    cpsid    i\n");
 207:Generated_Source\PSoC5/ErikaOS_cortex_mx_ee_cpu.inc **** #else	/* __CCS__ */
 208:Generated_Source\PSoC5/ErikaOS_cortex_mx_ee_cpu.inc **** #ifdef __KEIL__
 209:Generated_Source\PSoC5/ErikaOS_cortex_mx_ee_cpu.inc **** 	__disable_irq();
 210:Generated_Source\PSoC5/ErikaOS_cortex_mx_ee_cpu.inc **** #else	/* __KEIL__ */
 211:Generated_Source\PSoC5/ErikaOS_cortex_mx_ee_cpu.inc **** 	__ASM volatile("cpsid i");
 342              		.loc 3 211 0
 343              		.syntax unified
ARM GAS  C:\Users\agila\AppData\Local\Temp\ccuh57Vd.s 			page 16


 344              	@ 211 "Generated_Source\PSoC5/ErikaOS_cortex_mx_ee_cpu.inc" 1
 345 000a 72B6     		cpsid i
 346              	@ 0 "" 2
 347              		.thumb
 348              		.syntax unified
 349              	.LBE87:
 350              	.LBE86:
 351              	.LBB88:
 352              	.LBB89:
 212:Generated_Source\PSoC5/ErikaOS_cortex_mx_ee_cpu.inc **** #endif	/* !__KEIL__ */
 213:Generated_Source\PSoC5/ErikaOS_cortex_mx_ee_cpu.inc **** #endif	/* !__CCS__ */
 214:Generated_Source\PSoC5/ErikaOS_cortex_mx_ee_cpu.inc **** #endif	/* !__IAR__ */
 215:Generated_Source\PSoC5/ErikaOS_cortex_mx_ee_cpu.inc **** }
 216:Generated_Source\PSoC5/ErikaOS_cortex_mx_ee_cpu.inc **** 
 217:Generated_Source\PSoC5/ErikaOS_cortex_mx_ee_cpu.inc **** /**
 218:Generated_Source\PSoC5/ErikaOS_cortex_mx_ee_cpu.inc ****  * Resume interrupts
 219:Generated_Source\PSoC5/ErikaOS_cortex_mx_ee_cpu.inc ****  */
 220:Generated_Source\PSoC5/ErikaOS_cortex_mx_ee_cpu.inc **** __INLINE__ void  EE_cortex_mx_resumeIRQ(EE_FREG f)
 221:Generated_Source\PSoC5/ErikaOS_cortex_mx_ee_cpu.inc **** {
 222:Generated_Source\PSoC5/ErikaOS_cortex_mx_ee_cpu.inc **** #ifdef __IAR__
 223:Generated_Source\PSoC5/ErikaOS_cortex_mx_ee_cpu.inc **** 	__set_PRIMASK(f);
 224:Generated_Source\PSoC5/ErikaOS_cortex_mx_ee_cpu.inc **** #else	/* __IAR__ */
 225:Generated_Source\PSoC5/ErikaOS_cortex_mx_ee_cpu.inc **** #ifdef __CCS__
 226:Generated_Source\PSoC5/ErikaOS_cortex_mx_ee_cpu.inc **** 	__ASM ("    msr    primask, r0\n");
 227:Generated_Source\PSoC5/ErikaOS_cortex_mx_ee_cpu.inc **** #else	/* __CCS__ */
 228:Generated_Source\PSoC5/ErikaOS_cortex_mx_ee_cpu.inc **** #ifdef __KEIL__
 229:Generated_Source\PSoC5/ErikaOS_cortex_mx_ee_cpu.inc **** 	register EE_FREG PRIMASK __ASM("primask");
 230:Generated_Source\PSoC5/ErikaOS_cortex_mx_ee_cpu.inc **** 	PRIMASK = f;
 231:Generated_Source\PSoC5/ErikaOS_cortex_mx_ee_cpu.inc **** #else	/* __KEIL__ */
 232:Generated_Source\PSoC5/ErikaOS_cortex_mx_ee_cpu.inc **** 	__ASM volatile("msr primask, %0" :: "r" (f));
 233:Generated_Source\PSoC5/ErikaOS_cortex_mx_ee_cpu.inc **** #endif	/* !__KEIL__ */
 234:Generated_Source\PSoC5/ErikaOS_cortex_mx_ee_cpu.inc **** #endif	/* !__CCS__ */
 235:Generated_Source\PSoC5/ErikaOS_cortex_mx_ee_cpu.inc **** #endif	/* !__IAR__ */
 236:Generated_Source\PSoC5/ErikaOS_cortex_mx_ee_cpu.inc **** }
 237:Generated_Source\PSoC5/ErikaOS_cortex_mx_ee_cpu.inc **** 
 238:Generated_Source\PSoC5/ErikaOS_cortex_mx_ee_cpu.inc **** /**
 239:Generated_Source\PSoC5/ErikaOS_cortex_mx_ee_cpu.inc ****  * Suspend interrupts
 240:Generated_Source\PSoC5/ErikaOS_cortex_mx_ee_cpu.inc ****  */
 241:Generated_Source\PSoC5/ErikaOS_cortex_mx_ee_cpu.inc **** __INLINE__ EE_FREG  EE_cortex_mx_suspendIRQ(void)
 242:Generated_Source\PSoC5/ErikaOS_cortex_mx_ee_cpu.inc **** {
 243:Generated_Source\PSoC5/ErikaOS_cortex_mx_ee_cpu.inc **** #ifndef __CCS__
 244:Generated_Source\PSoC5/ErikaOS_cortex_mx_ee_cpu.inc **** 	EE_FREG istat;
 245:Generated_Source\PSoC5/ErikaOS_cortex_mx_ee_cpu.inc **** #endif
 246:Generated_Source\PSoC5/ErikaOS_cortex_mx_ee_cpu.inc **** #ifdef __IAR__
 247:Generated_Source\PSoC5/ErikaOS_cortex_mx_ee_cpu.inc **** 	 istat = __get_PRIMASK();
 248:Generated_Source\PSoC5/ErikaOS_cortex_mx_ee_cpu.inc **** 	__ASM ("cpsid i");
 249:Generated_Source\PSoC5/ErikaOS_cortex_mx_ee_cpu.inc **** #else	/* __IAR__ */
 250:Generated_Source\PSoC5/ErikaOS_cortex_mx_ee_cpu.inc **** #ifdef __CCS__
 251:Generated_Source\PSoC5/ErikaOS_cortex_mx_ee_cpu.inc **** 	__ASM ("    mrs     r0, primask\n"
 252:Generated_Source\PSoC5/ErikaOS_cortex_mx_ee_cpu.inc **** 	       "    cpsid   i\n"
 253:Generated_Source\PSoC5/ErikaOS_cortex_mx_ee_cpu.inc **** 	       "    bx      lr\n");
 254:Generated_Source\PSoC5/ErikaOS_cortex_mx_ee_cpu.inc **** #else	/* __CCS__ */
 255:Generated_Source\PSoC5/ErikaOS_cortex_mx_ee_cpu.inc **** #ifdef __KEIL__
 256:Generated_Source\PSoC5/ErikaOS_cortex_mx_ee_cpu.inc **** 	register EE_FREG PRIMASK __ASM("primask");
 257:Generated_Source\PSoC5/ErikaOS_cortex_mx_ee_cpu.inc **** 	istat = PRIMASK;
 258:Generated_Source\PSoC5/ErikaOS_cortex_mx_ee_cpu.inc **** 	__disable_irq();
 259:Generated_Source\PSoC5/ErikaOS_cortex_mx_ee_cpu.inc **** #else	/* __KEIL__ */
ARM GAS  C:\Users\agila\AppData\Local\Temp\ccuh57Vd.s 			page 17


 260:Generated_Source\PSoC5/ErikaOS_cortex_mx_ee_cpu.inc **** 	__ASM volatile ("mrs %0, primask" : "=r" (istat) );
 261:Generated_Source\PSoC5/ErikaOS_cortex_mx_ee_cpu.inc **** 	__ASM volatile ("cpsid i");
 262:Generated_Source\PSoC5/ErikaOS_cortex_mx_ee_cpu.inc **** #endif	/* !__KEIL__ */
 263:Generated_Source\PSoC5/ErikaOS_cortex_mx_ee_cpu.inc **** #endif	/* !__CCS__ */
 264:Generated_Source\PSoC5/ErikaOS_cortex_mx_ee_cpu.inc **** #endif	/* !__IAR__ */
 265:Generated_Source\PSoC5/ErikaOS_cortex_mx_ee_cpu.inc **** #ifdef __CCS__
 266:Generated_Source\PSoC5/ErikaOS_cortex_mx_ee_cpu.inc **** 	return 0;
 267:Generated_Source\PSoC5/ErikaOS_cortex_mx_ee_cpu.inc **** #else
 268:Generated_Source\PSoC5/ErikaOS_cortex_mx_ee_cpu.inc **** 	return istat;
 269:Generated_Source\PSoC5/ErikaOS_cortex_mx_ee_cpu.inc **** #endif
 270:Generated_Source\PSoC5/ErikaOS_cortex_mx_ee_cpu.inc **** }
 271:Generated_Source\PSoC5/ErikaOS_cortex_mx_ee_cpu.inc **** 
 272:Generated_Source\PSoC5/ErikaOS_cortex_mx_ee_cpu.inc **** /**
 273:Generated_Source\PSoC5/ErikaOS_cortex_mx_ee_cpu.inc ****  * Return true (not 0) if IRQs are enabled, 0 (false) if IRQ are disabled.
 274:Generated_Source\PSoC5/ErikaOS_cortex_mx_ee_cpu.inc ****  */
 275:Generated_Source\PSoC5/ErikaOS_cortex_mx_ee_cpu.inc **** __INLINE__ EE_UINT32  EE_cortex_mx_get_IRQ_enabled(void)
 276:Generated_Source\PSoC5/ErikaOS_cortex_mx_ee_cpu.inc **** {
 277:Generated_Source\PSoC5/ErikaOS_cortex_mx_ee_cpu.inc **** #ifndef __CCS__
 278:Generated_Source\PSoC5/ErikaOS_cortex_mx_ee_cpu.inc **** 	EE_UREG ie;
 279:Generated_Source\PSoC5/ErikaOS_cortex_mx_ee_cpu.inc **** #endif
 280:Generated_Source\PSoC5/ErikaOS_cortex_mx_ee_cpu.inc **** #ifdef __IAR__
 281:Generated_Source\PSoC5/ErikaOS_cortex_mx_ee_cpu.inc **** 	ie = __get_PRIMASK();
 282:Generated_Source\PSoC5/ErikaOS_cortex_mx_ee_cpu.inc **** #else	/* __IAR__ */
 283:Generated_Source\PSoC5/ErikaOS_cortex_mx_ee_cpu.inc **** #ifdef __CCS__
 284:Generated_Source\PSoC5/ErikaOS_cortex_mx_ee_cpu.inc **** 	__ASM ("    MRS     r0, PRIMASK\n"
 285:Generated_Source\PSoC5/ErikaOS_cortex_mx_ee_cpu.inc **** 	       "    EOR     r0, #1\n"
 286:Generated_Source\PSoC5/ErikaOS_cortex_mx_ee_cpu.inc **** 	       "    bx      lr\n");
 287:Generated_Source\PSoC5/ErikaOS_cortex_mx_ee_cpu.inc **** #else	/* __CCS__ */
 288:Generated_Source\PSoC5/ErikaOS_cortex_mx_ee_cpu.inc **** #ifdef __KEIL__
 289:Generated_Source\PSoC5/ErikaOS_cortex_mx_ee_cpu.inc **** 	register EE_FREG PRIMASK __ASM("primask");
 290:Generated_Source\PSoC5/ErikaOS_cortex_mx_ee_cpu.inc **** 	ie = PRIMASK;
 291:Generated_Source\PSoC5/ErikaOS_cortex_mx_ee_cpu.inc **** #else	/* __KEIL__ */
 292:Generated_Source\PSoC5/ErikaOS_cortex_mx_ee_cpu.inc **** 	__ASM volatile ("MRS %0, primask" : "=r" (ie) );
 293:Generated_Source\PSoC5/ErikaOS_cortex_mx_ee_cpu.inc **** #endif	/* !__KEIL__ */
 294:Generated_Source\PSoC5/ErikaOS_cortex_mx_ee_cpu.inc **** #endif	/* !__CCS__ */
 295:Generated_Source\PSoC5/ErikaOS_cortex_mx_ee_cpu.inc **** #endif	/* !__IAR__ */
 296:Generated_Source\PSoC5/ErikaOS_cortex_mx_ee_cpu.inc **** #ifdef __CCS__
 297:Generated_Source\PSoC5/ErikaOS_cortex_mx_ee_cpu.inc **** 	return 0;
 298:Generated_Source\PSoC5/ErikaOS_cortex_mx_ee_cpu.inc **** #else
 299:Generated_Source\PSoC5/ErikaOS_cortex_mx_ee_cpu.inc **** 	return EE_cortex_mx_are_IRQs_enabled(ie);
 300:Generated_Source\PSoC5/ErikaOS_cortex_mx_ee_cpu.inc **** #endif
 301:Generated_Source\PSoC5/ErikaOS_cortex_mx_ee_cpu.inc **** }
 302:Generated_Source\PSoC5/ErikaOS_cortex_mx_ee_cpu.inc **** 
 303:Generated_Source\PSoC5/ErikaOS_cortex_mx_ee_cpu.inc **** __INLINE__ EE_TYPEISR2PRIO  EE_cortex_mx_get_int_prio(void)
 304:Generated_Source\PSoC5/ErikaOS_cortex_mx_ee_cpu.inc **** {
 305:Generated_Source\PSoC5/ErikaOS_cortex_mx_ee_cpu.inc **** #ifdef __CORTEX_M4__
 306:Generated_Source\PSoC5/ErikaOS_cortex_mx_ee_cpu.inc **** 
 307:Generated_Source\PSoC5/ErikaOS_cortex_mx_ee_cpu.inc **** #ifndef __CCS__
 308:Generated_Source\PSoC5/ErikaOS_cortex_mx_ee_cpu.inc **** 	register EE_UREG prio;
 309:Generated_Source\PSoC5/ErikaOS_cortex_mx_ee_cpu.inc **** #ifdef	__KEIL__
 310:Generated_Source\PSoC5/ErikaOS_cortex_mx_ee_cpu.inc **** 	register EE_FREG BASEPRI __ASM("basepri");
 311:Generated_Source\PSoC5/ErikaOS_cortex_mx_ee_cpu.inc **** #endif
 312:Generated_Source\PSoC5/ErikaOS_cortex_mx_ee_cpu.inc **** 
 313:Generated_Source\PSoC5/ErikaOS_cortex_mx_ee_cpu.inc **** #endif
 314:Generated_Source\PSoC5/ErikaOS_cortex_mx_ee_cpu.inc **** 
 315:Generated_Source\PSoC5/ErikaOS_cortex_mx_ee_cpu.inc **** #ifdef __CCS__
 316:Generated_Source\PSoC5/ErikaOS_cortex_mx_ee_cpu.inc **** 	/* NVIC_INT_PRI_S = 5 */
ARM GAS  C:\Users\agila\AppData\Local\Temp\ccuh57Vd.s 			page 18


 317:Generated_Source\PSoC5/ErikaOS_cortex_mx_ee_cpu.inc **** 	__ASM ("    MRS     R0, BASEPRI\n"
 318:Generated_Source\PSoC5/ErikaOS_cortex_mx_ee_cpu.inc **** 	       "    ASR     R0, #5\n"
 319:Generated_Source\PSoC5/ErikaOS_cortex_mx_ee_cpu.inc **** 	       "    BLX     LR\n");
 320:Generated_Source\PSoC5/ErikaOS_cortex_mx_ee_cpu.inc **** #else	/* __CCS__ */
 321:Generated_Source\PSoC5/ErikaOS_cortex_mx_ee_cpu.inc **** #ifdef __KEIL__
 322:Generated_Source\PSoC5/ErikaOS_cortex_mx_ee_cpu.inc **** 	prio = BASEPRI;
 323:Generated_Source\PSoC5/ErikaOS_cortex_mx_ee_cpu.inc **** #else	/* __KEIL__ */
 324:Generated_Source\PSoC5/ErikaOS_cortex_mx_ee_cpu.inc **** #ifdef __GNU__
 325:Generated_Source\PSoC5/ErikaOS_cortex_mx_ee_cpu.inc **** 	__ASM volatile("MRS %0, BASEPRI" : "=r" (prio) :: );
 353              		.loc 3 325 0
 354              		.syntax unified
 355              	@ 325 "Generated_Source\PSoC5/ErikaOS_cortex_mx_ee_cpu.inc" 1
 356 000c EFF31184 		MRS r4, BASEPRI
 357              	@ 0 "" 2
 358              	.LVL29:
 359              		.thumb
 360              		.syntax unified
 361              	.LBE89:
 362              	.LBE88:
 363              	.LBB90:
 364              	.LBB91:
 326:Generated_Source\PSoC5/ErikaOS_cortex_mx_ee_cpu.inc **** #else
 327:Generated_Source\PSoC5/ErikaOS_cortex_mx_ee_cpu.inc **** 	__ASM volatile("MRS %0, BASEPRI" :: "=r" (prio));
 328:Generated_Source\PSoC5/ErikaOS_cortex_mx_ee_cpu.inc **** #endif	/* !__GNU__ */
 329:Generated_Source\PSoC5/ErikaOS_cortex_mx_ee_cpu.inc **** #endif	/* !__KEIL__ */
 330:Generated_Source\PSoC5/ErikaOS_cortex_mx_ee_cpu.inc **** #endif	/* !__CCS__ */
 331:Generated_Source\PSoC5/ErikaOS_cortex_mx_ee_cpu.inc **** 
 332:Generated_Source\PSoC5/ErikaOS_cortex_mx_ee_cpu.inc **** #ifdef __CCS__
 333:Generated_Source\PSoC5/ErikaOS_cortex_mx_ee_cpu.inc **** 	return 0;
 334:Generated_Source\PSoC5/ErikaOS_cortex_mx_ee_cpu.inc **** #else
 335:Generated_Source\PSoC5/ErikaOS_cortex_mx_ee_cpu.inc **** 	return prio >> NVIC_INT_PRI_S;
 336:Generated_Source\PSoC5/ErikaOS_cortex_mx_ee_cpu.inc **** #endif
 337:Generated_Source\PSoC5/ErikaOS_cortex_mx_ee_cpu.inc **** 
 338:Generated_Source\PSoC5/ErikaOS_cortex_mx_ee_cpu.inc **** #else	/* __CORTEX_M4__ */
 339:Generated_Source\PSoC5/ErikaOS_cortex_mx_ee_cpu.inc **** 	return 0;
 340:Generated_Source\PSoC5/ErikaOS_cortex_mx_ee_cpu.inc **** #endif	/* !__CORTEX_M4__ */
 341:Generated_Source\PSoC5/ErikaOS_cortex_mx_ee_cpu.inc **** }
 342:Generated_Source\PSoC5/ErikaOS_cortex_mx_ee_cpu.inc **** 
 343:Generated_Source\PSoC5/ErikaOS_cortex_mx_ee_cpu.inc **** __INLINE__ void  EE_cortex_mx_set_int_prio(
 344:Generated_Source\PSoC5/ErikaOS_cortex_mx_ee_cpu.inc ****   EE_TYPEISR2PRIO prio
 345:Generated_Source\PSoC5/ErikaOS_cortex_mx_ee_cpu.inc **** )
 346:Generated_Source\PSoC5/ErikaOS_cortex_mx_ee_cpu.inc **** {
 347:Generated_Source\PSoC5/ErikaOS_cortex_mx_ee_cpu.inc **** #ifdef __CORTEX_M4__
 348:Generated_Source\PSoC5/ErikaOS_cortex_mx_ee_cpu.inc **** #ifdef __CCS__
 349:Generated_Source\PSoC5/ErikaOS_cortex_mx_ee_cpu.inc **** 	/* NVIC_INT_PRI_S = 5 */
 350:Generated_Source\PSoC5/ErikaOS_cortex_mx_ee_cpu.inc **** 	__ASM ("    LSL    R0, #5\n"
 351:Generated_Source\PSoC5/ErikaOS_cortex_mx_ee_cpu.inc **** 	       "    MSR    BASEPRI, R0\n");
 352:Generated_Source\PSoC5/ErikaOS_cortex_mx_ee_cpu.inc **** #else	/* __CCS__ */
 353:Generated_Source\PSoC5/ErikaOS_cortex_mx_ee_cpu.inc **** #ifdef __KEIL__
 354:Generated_Source\PSoC5/ErikaOS_cortex_mx_ee_cpu.inc **** 	register EE_FREG BASEPRI __ASM("basepri");
 355:Generated_Source\PSoC5/ErikaOS_cortex_mx_ee_cpu.inc **** 	BASEPRI = (prio << NVIC_INT_PRI_S);
 356:Generated_Source\PSoC5/ErikaOS_cortex_mx_ee_cpu.inc **** #else	/* __KEIL__ */
 357:Generated_Source\PSoC5/ErikaOS_cortex_mx_ee_cpu.inc **** #ifdef __GNU__
 358:Generated_Source\PSoC5/ErikaOS_cortex_mx_ee_cpu.inc **** 	__ASM volatile("MSR BASEPRI, %0" :: "r" (prio << NVIC_INT_PRI_S) : );
 359:Generated_Source\PSoC5/ErikaOS_cortex_mx_ee_cpu.inc **** #else
 360:Generated_Source\PSoC5/ErikaOS_cortex_mx_ee_cpu.inc **** 	__ASM volatile("MSR BASEPRI, %0" :: "r" (prio << NVIC_INT_PRI_S));
 361:Generated_Source\PSoC5/ErikaOS_cortex_mx_ee_cpu.inc **** #endif	/* !__GNU__ */
ARM GAS  C:\Users\agila\AppData\Local\Temp\ccuh57Vd.s 			page 19


 362:Generated_Source\PSoC5/ErikaOS_cortex_mx_ee_cpu.inc **** #endif	/* !__KEIL__ */
 363:Generated_Source\PSoC5/ErikaOS_cortex_mx_ee_cpu.inc **** #endif	/* !__CCS__ */
 364:Generated_Source\PSoC5/ErikaOS_cortex_mx_ee_cpu.inc **** #endif	/* __CORTEX_M4__ */
 365:Generated_Source\PSoC5/ErikaOS_cortex_mx_ee_cpu.inc **** }
 366:Generated_Source\PSoC5/ErikaOS_cortex_mx_ee_cpu.inc **** 
 367:Generated_Source\PSoC5/ErikaOS_cortex_mx_ee_cpu.inc **** __INLINE__ EE_TYPEISR2PRIO  EE_cortex_mx_get_isr_prio(
 368:Generated_Source\PSoC5/ErikaOS_cortex_mx_ee_cpu.inc ****   void
 369:Generated_Source\PSoC5/ErikaOS_cortex_mx_ee_cpu.inc **** )
 370:Generated_Source\PSoC5/ErikaOS_cortex_mx_ee_cpu.inc **** {
 371:Generated_Source\PSoC5/ErikaOS_cortex_mx_ee_cpu.inc **** #ifdef __CORTEX_M4__
 372:Generated_Source\PSoC5/ErikaOS_cortex_mx_ee_cpu.inc ****   register EE_UREG vectact = NVIC_INT_CTRL_R & NVIC_INT_CTRL_VEC_ACT_M;
 365              		.loc 3 372 0
 366 0010 1E4B     		ldr	r3, .L29
 367 0012 1B68     		ldr	r3, [r3]
 368 0014 DBB2     		uxtb	r3, r3
 369              	.LVL30:
 373:Generated_Source\PSoC5/ErikaOS_cortex_mx_ee_cpu.inc ****   register EE_TYPEISR2PRIO prio = 0;
 374:Generated_Source\PSoC5/ErikaOS_cortex_mx_ee_cpu.inc **** 
 375:Generated_Source\PSoC5/ErikaOS_cortex_mx_ee_cpu.inc ****   if (vectact > EE_CORTEX_MX_SYSTICK_EXC_NUM) {
 370              		.loc 3 375 0
 371 0016 0F2B     		cmp	r3, #15
 372 0018 10D9     		bls	.L24
 376:Generated_Source\PSoC5/ErikaOS_cortex_mx_ee_cpu.inc ****     vectact -= EE_CORTEX_MX_SYSTICK_EXC_NUM + 1;
 373              		.loc 3 376 0
 374 001a 103B     		subs	r3, r3, #16
 375              	.LVL31:
 377:Generated_Source\PSoC5/ErikaOS_cortex_mx_ee_cpu.inc ****     prio = NVIC_GET_PRI(vectact);
 376              		.loc 3 377 0
 377 001c 23F00302 		bic	r2, r3, #3
 378 0020 02F16042 		add	r2, r2, #-536870912
 379 0024 02F56442 		add	r2, r2, #58368
 380 0028 1168     		ldr	r1, [r2]
 381 002a DB00     		lsls	r3, r3, #3
 382              	.LVL32:
 383 002c 03F01803 		and	r3, r3, #24
 384 0030 E022     		movs	r2, #224
 385 0032 9A40     		lsls	r2, r2, r3
 386 0034 0A40     		ands	r2, r2, r1
 387 0036 22FA03F3 		lsr	r3, r2, r3
 388              	.LVL33:
 389 003a 06E0     		b	.L25
 390              	.LVL34:
 391              	.L24:
 378:Generated_Source\PSoC5/ErikaOS_cortex_mx_ee_cpu.inc ****   }
 379:Generated_Source\PSoC5/ErikaOS_cortex_mx_ee_cpu.inc **** #ifdef	__USE_SYSTICK__
 380:Generated_Source\PSoC5/ErikaOS_cortex_mx_ee_cpu.inc ****   else if (vectact == EE_CORTEX_MX_SYSTICK_EXC_NUM) {
 392              		.loc 3 380 0
 393 003c 0F2B     		cmp	r3, #15
 394 003e 03D1     		bne	.L28
 381:Generated_Source\PSoC5/ErikaOS_cortex_mx_ee_cpu.inc ****     prio = NVIC_SYS_PRI3_R >> NVIC_SYS_PRI3_TICK_S;
 395              		.loc 3 381 0
 396 0040 134B     		ldr	r3, .L29+4
 397              	.LVL35:
 398 0042 1B68     		ldr	r3, [r3]
 399 0044 1B0E     		lsrs	r3, r3, #24
 400              	.LVL36:
 401 0046 00E0     		b	.L25
ARM GAS  C:\Users\agila\AppData\Local\Temp\ccuh57Vd.s 			page 20


 402              	.LVL37:
 403              	.L28:
 373:Generated_Source\PSoC5/ErikaOS_cortex_mx_ee_cpu.inc **** 
 404              		.loc 3 373 0
 405 0048 0023     		movs	r3, #0
 406              	.LVL38:
 407              	.L25:
 408              	.LBE91:
 409              	.LBE90:
 410              	.LBB92:
 411              	.LBB93:
 358:Generated_Source\PSoC5/ErikaOS_cortex_mx_ee_cpu.inc **** #else
 412              		.loc 3 358 0
 413              		.syntax unified
 414              	@ 358 "Generated_Source\PSoC5/ErikaOS_cortex_mx_ee_cpu.inc" 1
 415 004a 83F31188 		MSR BASEPRI, r3
 416              	@ 0 "" 2
 417              		.thumb
 418              		.syntax unified
 419              	.LBE93:
 420              	.LBE92:
 421              	.LBB94:
 422              	.LBB95:
 423              		.file 4 "Generated_Source\\PSoC5/ErikaOS_common_ee_irqstub.inc"
   1:Generated_Source\PSoC5/ErikaOS_common_ee_irqstub.inc **** /* ###*B*###
   2:Generated_Source\PSoC5/ErikaOS_common_ee_irqstub.inc ****  * ERIKA Enterprise - a tiny RTOS for small microcontrollers
   3:Generated_Source\PSoC5/ErikaOS_common_ee_irqstub.inc ****  *
   4:Generated_Source\PSoC5/ErikaOS_common_ee_irqstub.inc ****  * Copyright (C) 2002-2010  Evidence Srl
   5:Generated_Source\PSoC5/ErikaOS_common_ee_irqstub.inc ****  *
   6:Generated_Source\PSoC5/ErikaOS_common_ee_irqstub.inc ****  * This file is part of ERIKA Enterprise.
   7:Generated_Source\PSoC5/ErikaOS_common_ee_irqstub.inc ****  *
   8:Generated_Source\PSoC5/ErikaOS_common_ee_irqstub.inc ****  * ERIKA Enterprise is free software; you can redistribute it
   9:Generated_Source\PSoC5/ErikaOS_common_ee_irqstub.inc ****  * and/or modify it under the terms of the GNU General Public License
  10:Generated_Source\PSoC5/ErikaOS_common_ee_irqstub.inc ****  * version 2 as published by the Free Software Foundation,
  11:Generated_Source\PSoC5/ErikaOS_common_ee_irqstub.inc ****  * (with a special exception described below).
  12:Generated_Source\PSoC5/ErikaOS_common_ee_irqstub.inc ****  *
  13:Generated_Source\PSoC5/ErikaOS_common_ee_irqstub.inc ****  * Linking this code statically or dynamically with other modules is
  14:Generated_Source\PSoC5/ErikaOS_common_ee_irqstub.inc ****  * making a combined work based on this code.  Thus, the terms and
  15:Generated_Source\PSoC5/ErikaOS_common_ee_irqstub.inc ****  * conditions of the GNU General Public License cover the whole
  16:Generated_Source\PSoC5/ErikaOS_common_ee_irqstub.inc ****  * combination.
  17:Generated_Source\PSoC5/ErikaOS_common_ee_irqstub.inc ****  *
  18:Generated_Source\PSoC5/ErikaOS_common_ee_irqstub.inc ****  * As a special exception, the copyright holders of this library give you
  19:Generated_Source\PSoC5/ErikaOS_common_ee_irqstub.inc ****  * permission to link this code with independent modules to produce an
  20:Generated_Source\PSoC5/ErikaOS_common_ee_irqstub.inc ****  * executable, regardless of the license terms of these independent
  21:Generated_Source\PSoC5/ErikaOS_common_ee_irqstub.inc ****  * modules, and to copy and distribute the resulting executable under
  22:Generated_Source\PSoC5/ErikaOS_common_ee_irqstub.inc ****  * terms of your choice, provided that you also meet, for each linked
  23:Generated_Source\PSoC5/ErikaOS_common_ee_irqstub.inc ****  * independent module, the terms and conditions of the license of that
  24:Generated_Source\PSoC5/ErikaOS_common_ee_irqstub.inc ****  * module.  An independent module is a module which is not derived from
  25:Generated_Source\PSoC5/ErikaOS_common_ee_irqstub.inc ****  * or based on this library.  If you modify this code, you may extend
  26:Generated_Source\PSoC5/ErikaOS_common_ee_irqstub.inc ****  * this exception to your version of the code, but you are not
  27:Generated_Source\PSoC5/ErikaOS_common_ee_irqstub.inc ****  * obligated to do so.  If you do not wish to do so, delete this
  28:Generated_Source\PSoC5/ErikaOS_common_ee_irqstub.inc ****  * exception statement from your version.
  29:Generated_Source\PSoC5/ErikaOS_common_ee_irqstub.inc ****  *
  30:Generated_Source\PSoC5/ErikaOS_common_ee_irqstub.inc ****  * ERIKA Enterprise is distributed in the hope that it will be
  31:Generated_Source\PSoC5/ErikaOS_common_ee_irqstub.inc ****  * useful, but WITHOUT ANY WARRANTY; without even the implied warranty
  32:Generated_Source\PSoC5/ErikaOS_common_ee_irqstub.inc ****  * of MERCHANTABILITY or FITNESS FOR A PARTICULAR PURPOSE.  See the
  33:Generated_Source\PSoC5/ErikaOS_common_ee_irqstub.inc ****  * GNU General Public License version 2 for more details.
ARM GAS  C:\Users\agila\AppData\Local\Temp\ccuh57Vd.s 			page 21


  34:Generated_Source\PSoC5/ErikaOS_common_ee_irqstub.inc ****  *
  35:Generated_Source\PSoC5/ErikaOS_common_ee_irqstub.inc ****  * You should have received a copy of the GNU General Public License
  36:Generated_Source\PSoC5/ErikaOS_common_ee_irqstub.inc ****  * version 2 along with ERIKA Enterprise; if not, write to the
  37:Generated_Source\PSoC5/ErikaOS_common_ee_irqstub.inc ****  * Free Software Foundation, Inc., 51 Franklin Street, Fifth Floor,
  38:Generated_Source\PSoC5/ErikaOS_common_ee_irqstub.inc ****  * Boston, MA 02110-1301 USA.
  39:Generated_Source\PSoC5/ErikaOS_common_ee_irqstub.inc ****  * ###*E*### */
  40:Generated_Source\PSoC5/ErikaOS_common_ee_irqstub.inc **** 
  41:Generated_Source\PSoC5/ErikaOS_common_ee_irqstub.inc **** /*
  42:Generated_Source\PSoC5/ErikaOS_common_ee_irqstub.inc ****  * Some IRQ-related stuff.
  43:Generated_Source\PSoC5/ErikaOS_common_ee_irqstub.inc ****  * Author: 2009-2010,  Bernardo  Dal Seno
  44:Generated_Source\PSoC5/ErikaOS_common_ee_irqstub.inc ****  */
  45:Generated_Source\PSoC5/ErikaOS_common_ee_irqstub.inc **** 
  46:Generated_Source\PSoC5/ErikaOS_common_ee_irqstub.inc **** /*
  47:Generated_Source\PSoC5/ErikaOS_common_ee_irqstub.inc ****  * PSoC Port and API Generation
  48:Generated_Source\PSoC5/ErikaOS_common_ee_irqstub.inc ****  * Carlos Fernando Meier Martinez
  49:Generated_Source\PSoC5/ErikaOS_common_ee_irqstub.inc ****  * Hochschule Darmstadt, Germany. 2017.
  50:Generated_Source\PSoC5/ErikaOS_common_ee_irqstub.inc ****  */
  51:Generated_Source\PSoC5/ErikaOS_common_ee_irqstub.inc **** 
  52:Generated_Source\PSoC5/ErikaOS_common_ee_irqstub.inc **** /*******************************************************************************
  53:Generated_Source\PSoC5/ErikaOS_common_ee_irqstub.inc ****  *                        !!!WARNING!!!
  54:Generated_Source\PSoC5/ErikaOS_common_ee_irqstub.inc ****  * This header depends on "cpu/common/inc/ee_context.inc" or your own
  55:Generated_Source\PSoC5/ErikaOS_common_ee_irqstub.inc ****  * implementation of the same. You should include it file before including this
  56:Generated_Source\PSoC5/ErikaOS_common_ee_irqstub.inc ****  * file
  57:Generated_Source\PSoC5/ErikaOS_common_ee_irqstub.inc ****  ******************************************************************************/
  58:Generated_Source\PSoC5/ErikaOS_common_ee_irqstub.inc **** 
  59:Generated_Source\PSoC5/ErikaOS_common_ee_irqstub.inc **** #ifndef PKG_CPU_COMMON_INC_EE_IRQSTUB_H
  60:Generated_Source\PSoC5/ErikaOS_common_ee_irqstub.inc **** #define PKG_CPU_COMMON_INC_EE_IRQSTUB_H
  61:Generated_Source\PSoC5/ErikaOS_common_ee_irqstub.inc **** 
  62:Generated_Source\PSoC5/ErikaOS_common_ee_irqstub.inc **** /* this bring EE_IRQ_nesting_level definition */
  63:Generated_Source\PSoC5/ErikaOS_common_ee_irqstub.inc **** #include "ErikaOS_common_ee_primitives.inc"
  64:Generated_Source\PSoC5/ErikaOS_common_ee_irqstub.inc **** 
  65:Generated_Source\PSoC5/ErikaOS_common_ee_irqstub.inc **** /* True if we are inside an interrupt-serving routine */
  66:Generated_Source\PSoC5/ErikaOS_common_ee_irqstub.inc **** __INLINE__ EE_TYPEBOOL  EE_is_inside_ISR_call( void )
  67:Generated_Source\PSoC5/ErikaOS_common_ee_irqstub.inc **** {
  68:Generated_Source\PSoC5/ErikaOS_common_ee_irqstub.inc ****   return (EE_IRQ_nesting_level > 0U);
  69:Generated_Source\PSoC5/ErikaOS_common_ee_irqstub.inc **** }
  70:Generated_Source\PSoC5/ErikaOS_common_ee_irqstub.inc **** 
  71:Generated_Source\PSoC5/ErikaOS_common_ee_irqstub.inc **** 
  72:Generated_Source\PSoC5/ErikaOS_common_ee_irqstub.inc **** /* EE_decrement_IRQ_nesting_level() and EE_increment_IRQ_nesting_level() are
  73:Generated_Source\PSoC5/ErikaOS_common_ee_irqstub.inc ****  * used to keep track of the current IRQ nesting level.
  74:Generated_Source\PSoC5/ErikaOS_common_ee_irqstub.inc ****  * EE_std_enableIRQ_nested() and EE_std_disableIRQ_nested() are used to control
  75:Generated_Source\PSoC5/ErikaOS_common_ee_irqstub.inc ****  * when IRQ nesting is enabled.
  76:Generated_Source\PSoC5/ErikaOS_common_ee_irqstub.inc ****  */
  77:Generated_Source\PSoC5/ErikaOS_common_ee_irqstub.inc **** #if defined(__AS_SC4__)
  78:Generated_Source\PSoC5/ErikaOS_common_ee_irqstub.inc **** /* For SC4 the nesting level is updated inside the prestub and postub */
  79:Generated_Source\PSoC5/ErikaOS_common_ee_irqstub.inc **** __INLINE__ void  EE_decrement_IRQ_nesting_level(void) {}
  80:Generated_Source\PSoC5/ErikaOS_common_ee_irqstub.inc **** __INLINE__ void  EE_increment_IRQ_nesting_level(void) {}
  81:Generated_Source\PSoC5/ErikaOS_common_ee_irqstub.inc **** __INLINE__ void  EE_std_enableIRQ_nested(void) {}
  82:Generated_Source\PSoC5/ErikaOS_common_ee_irqstub.inc **** __INLINE__ void  EE_std_disableIRQ_nested(void) {}
  83:Generated_Source\PSoC5/ErikaOS_common_ee_irqstub.inc **** #elif defined(__ALLOW_NESTED_IRQ__)
  84:Generated_Source\PSoC5/ErikaOS_common_ee_irqstub.inc **** __INLINE__ void  EE_decrement_IRQ_nesting_level(void) { --EE_IRQ_nesting_level; }
  85:Generated_Source\PSoC5/ErikaOS_common_ee_irqstub.inc **** __INLINE__ void  EE_increment_IRQ_nesting_level(void) { ++EE_IRQ_nesting_level; }
 424              		.loc 4 85 0
 425 004e 114A     		ldr	r2, .L29+8
 426 0050 1368     		ldr	r3, [r2]
 427 0052 0133     		adds	r3, r3, #1
 428 0054 1360     		str	r3, [r2]
ARM GAS  C:\Users\agila\AppData\Local\Temp\ccuh57Vd.s 			page 22


 429              	.LBE95:
 430              	.LBE94:
 154:source\asw/main.c **** {
 431              		.loc 1 154 0
 432 0056 012B     		cmp	r3, #1
 433 0058 01D1     		bne	.L26
 154:source\asw/main.c **** {
 434              		.loc 1 154 0 is_stmt 0 discriminator 1
 435 005a FFF7FEFF 		bl	EE_cortex_mx_change_IRQ_stack
 436              	.LVL39:
 437              	.L26:
 438              	.LBB96:
 439              	.LBB97:
 191:Generated_Source\PSoC5/ErikaOS_cortex_mx_ee_cpu.inc **** #endif	/* !__KEIL__ */
 440              		.loc 3 191 0 is_stmt 1 discriminator 3
 441              		.syntax unified
 442              	@ 191 "Generated_Source\PSoC5/ErikaOS_cortex_mx_ee_cpu.inc" 1
 443 005e 62B6     		cpsie i
 444              	@ 0 "" 2
 445              		.thumb
 446              		.syntax unified
 447              	.LBE97:
 448              	.LBE96:
 154:source\asw/main.c **** {
 449              		.loc 1 154 0 discriminator 3
 450 0060 FFF7FEFF 		bl	ISR2_systick_handler
 451              	.LVL40:
 452              	.LBB98:
 453              	.LBB99:
 211:Generated_Source\PSoC5/ErikaOS_cortex_mx_ee_cpu.inc **** #endif	/* !__KEIL__ */
 454              		.loc 3 211 0 discriminator 3
 455              		.syntax unified
 456              	@ 211 "Generated_Source\PSoC5/ErikaOS_cortex_mx_ee_cpu.inc" 1
 457 0064 72B6     		cpsid i
 458              	@ 0 "" 2
 459              	.LVL41:
 460              		.thumb
 461              		.syntax unified
 462              	.LBE99:
 463              	.LBE98:
 464              	.LBB100:
 465              	.LBB101:
 358:Generated_Source\PSoC5/ErikaOS_cortex_mx_ee_cpu.inc **** #else
 466              		.loc 3 358 0 discriminator 3
 467              		.syntax unified
 468              	@ 358 "Generated_Source\PSoC5/ErikaOS_cortex_mx_ee_cpu.inc" 1
 469 0066 84F31188 		MSR BASEPRI, r4
 470              	@ 0 "" 2
 471              	.LVL42:
 472              		.thumb
 473              		.syntax unified
 474              	.LBE101:
 475              	.LBE100:
 476              	.LBB102:
 477              	.LBB103:
  86:Generated_Source\PSoC5/ErikaOS_common_ee_irqstub.inc **** /*  EE_std_enableIRQ_nested() and EE_std_disableIRQ_nested() must be defined in
  87:Generated_Source\PSoC5/ErikaOS_common_ee_irqstub.inc ****  *  the platform-dependent part, as they dependend on the particular way
ARM GAS  C:\Users\agila\AppData\Local\Temp\ccuh57Vd.s 			page 23


  88:Generated_Source\PSoC5/ErikaOS_common_ee_irqstub.inc ****  *  interrupts are handled by the CPU. */
  89:Generated_Source\PSoC5/ErikaOS_common_ee_irqstub.inc **** #else
  90:Generated_Source\PSoC5/ErikaOS_common_ee_irqstub.inc **** __INLINE__ void  EE_decrement_IRQ_nesting_level(void) { EE_IRQ_nesting_level = 0U; }
  91:Generated_Source\PSoC5/ErikaOS_common_ee_irqstub.inc **** __INLINE__ void  EE_increment_IRQ_nesting_level(void) { EE_IRQ_nesting_level = 1U; }
  92:Generated_Source\PSoC5/ErikaOS_common_ee_irqstub.inc **** __INLINE__ void  EE_std_enableIRQ_nested(void) {}
  93:Generated_Source\PSoC5/ErikaOS_common_ee_irqstub.inc **** __INLINE__ void  EE_std_disableIRQ_nested(void) {}
  94:Generated_Source\PSoC5/ErikaOS_common_ee_irqstub.inc **** #endif
  95:Generated_Source\PSoC5/ErikaOS_common_ee_irqstub.inc **** 
  96:Generated_Source\PSoC5/ErikaOS_common_ee_irqstub.inc **** #if (defined(__OO_BCC1__)) || (defined(__OO_BCC2__)) || (defined(__OO_ECC1__)) \
  97:Generated_Source\PSoC5/ErikaOS_common_ee_irqstub.inc ****   || (defined(__OO_ECC2__)) || (defined(__AS_SC4__))
  98:Generated_Source\PSoC5/ErikaOS_common_ee_irqstub.inc **** /* Function to be called at the end of a function service interrupt, to execute
  99:Generated_Source\PSoC5/ErikaOS_common_ee_irqstub.inc ****    clean-up specifiend in Autosar standard */
 100:Generated_Source\PSoC5/ErikaOS_common_ee_irqstub.inc **** __INLINE__ void  EE_std_end_IRQ_post_stub(void)
 101:Generated_Source\PSoC5/ErikaOS_common_ee_irqstub.inc **** {
 102:Generated_Source\PSoC5/ErikaOS_common_ee_irqstub.inc ****   EE_IRQ_end_post_stub();
 478              		.loc 4 102 0 discriminator 3
 479 006a FFF7FEFF 		bl	EE_IRQ_end_post_stub
 480              	.LVL43:
 481              	.LBE103:
 482              	.LBE102:
 483              	.LBB104:
 484              	.LBB105:
  84:Generated_Source\PSoC5/ErikaOS_common_ee_irqstub.inc **** __INLINE__ void  EE_increment_IRQ_nesting_level(void) { ++EE_IRQ_nesting_level; }
 485              		.loc 4 84 0 discriminator 3
 486 006e 094A     		ldr	r2, .L29+8
 487 0070 1368     		ldr	r3, [r2]
 488 0072 013B     		subs	r3, r3, #1
 489 0074 1360     		str	r3, [r2]
 490              	.LBE105:
 491              	.LBE104:
 154:source\asw/main.c **** {
 492              		.loc 1 154 0 discriminator 3
 493 0076 1BB9     		cbnz	r3, .L27
 154:source\asw/main.c **** {
 494              		.loc 1 154 0 is_stmt 0 discriminator 4
 495 0078 FFF7FEFF 		bl	EE_cortex_mx_change_IRQ_stack_back
 496              	.LVL44:
 497              	.LBB106:
 498              	.LBB107:
 499              		.file 5 "Generated_Source\\PSoC5/ErikaOS_cortex_mx_ee_irq_cng_cont.inc"
   1:Generated_Source\PSoC5/ErikaOS_cortex_mx_ee_irq_cng_cont.inc **** /* ###*B*###
   2:Generated_Source\PSoC5/ErikaOS_cortex_mx_ee_irq_cng_cont.inc ****  * ERIKA Enterprise - a tiny RTOS for small microcontrollers
   3:Generated_Source\PSoC5/ErikaOS_cortex_mx_ee_irq_cng_cont.inc ****  *
   4:Generated_Source\PSoC5/ErikaOS_cortex_mx_ee_irq_cng_cont.inc ****  * Copyright (C) 2002-2011  Evidence Srl
   5:Generated_Source\PSoC5/ErikaOS_cortex_mx_ee_irq_cng_cont.inc ****  *
   6:Generated_Source\PSoC5/ErikaOS_cortex_mx_ee_irq_cng_cont.inc ****  * This file is part of ERIKA Enterprise.
   7:Generated_Source\PSoC5/ErikaOS_cortex_mx_ee_irq_cng_cont.inc ****  *
   8:Generated_Source\PSoC5/ErikaOS_cortex_mx_ee_irq_cng_cont.inc ****  * ERIKA Enterprise is free software; you can redistribute it
   9:Generated_Source\PSoC5/ErikaOS_cortex_mx_ee_irq_cng_cont.inc ****  * and/or modify it under the terms of the GNU General Public License
  10:Generated_Source\PSoC5/ErikaOS_cortex_mx_ee_irq_cng_cont.inc ****  * version 2 as published by the Free Software Foundation, 
  11:Generated_Source\PSoC5/ErikaOS_cortex_mx_ee_irq_cng_cont.inc ****  * (with a special exception described below).
  12:Generated_Source\PSoC5/ErikaOS_cortex_mx_ee_irq_cng_cont.inc ****  *
  13:Generated_Source\PSoC5/ErikaOS_cortex_mx_ee_irq_cng_cont.inc ****  * Linking this code statically or dynamically with other modules is
  14:Generated_Source\PSoC5/ErikaOS_cortex_mx_ee_irq_cng_cont.inc ****  * making a combined work based on this code.  Thus, the terms and
  15:Generated_Source\PSoC5/ErikaOS_cortex_mx_ee_irq_cng_cont.inc ****  * conditions of the GNU General Public License cover the whole
  16:Generated_Source\PSoC5/ErikaOS_cortex_mx_ee_irq_cng_cont.inc ****  * combination.
  17:Generated_Source\PSoC5/ErikaOS_cortex_mx_ee_irq_cng_cont.inc ****  *
ARM GAS  C:\Users\agila\AppData\Local\Temp\ccuh57Vd.s 			page 24


  18:Generated_Source\PSoC5/ErikaOS_cortex_mx_ee_irq_cng_cont.inc ****  * As a special exception, the copyright holders of this library give you
  19:Generated_Source\PSoC5/ErikaOS_cortex_mx_ee_irq_cng_cont.inc ****  * permission to link this code with independent modules to produce an
  20:Generated_Source\PSoC5/ErikaOS_cortex_mx_ee_irq_cng_cont.inc ****  * executable, regardless of the license terms of these independent
  21:Generated_Source\PSoC5/ErikaOS_cortex_mx_ee_irq_cng_cont.inc ****  * modules, and to copy and distribute the resulting executable under
  22:Generated_Source\PSoC5/ErikaOS_cortex_mx_ee_irq_cng_cont.inc ****  * terms of your choice, provided that you also meet, for each linked
  23:Generated_Source\PSoC5/ErikaOS_cortex_mx_ee_irq_cng_cont.inc ****  * independent module, the terms and conditions of the license of that
  24:Generated_Source\PSoC5/ErikaOS_cortex_mx_ee_irq_cng_cont.inc ****  * module.  An independent module is a module which is not derived from
  25:Generated_Source\PSoC5/ErikaOS_cortex_mx_ee_irq_cng_cont.inc ****  * or based on this library.  If you modify this code, you may extend
  26:Generated_Source\PSoC5/ErikaOS_cortex_mx_ee_irq_cng_cont.inc ****  * this exception to your version of the code, but you are not
  27:Generated_Source\PSoC5/ErikaOS_cortex_mx_ee_irq_cng_cont.inc ****  * obligated to do so.  If you do not wish to do so, delete this
  28:Generated_Source\PSoC5/ErikaOS_cortex_mx_ee_irq_cng_cont.inc ****  * exception statement from your version.
  29:Generated_Source\PSoC5/ErikaOS_cortex_mx_ee_irq_cng_cont.inc ****  *
  30:Generated_Source\PSoC5/ErikaOS_cortex_mx_ee_irq_cng_cont.inc ****  * ERIKA Enterprise is distributed in the hope that it will be
  31:Generated_Source\PSoC5/ErikaOS_cortex_mx_ee_irq_cng_cont.inc ****  * useful, but WITHOUT ANY WARRANTY; without even the implied warranty
  32:Generated_Source\PSoC5/ErikaOS_cortex_mx_ee_irq_cng_cont.inc ****  * of MERCHANTABILITY or FITNESS FOR A PARTICULAR PURPOSE.  See the
  33:Generated_Source\PSoC5/ErikaOS_cortex_mx_ee_irq_cng_cont.inc ****  * GNU General Public License version 2 for more details.
  34:Generated_Source\PSoC5/ErikaOS_cortex_mx_ee_irq_cng_cont.inc ****  *
  35:Generated_Source\PSoC5/ErikaOS_cortex_mx_ee_irq_cng_cont.inc ****  * You should have received a copy of the GNU General Public License
  36:Generated_Source\PSoC5/ErikaOS_cortex_mx_ee_irq_cng_cont.inc ****  * version 2 along with ERIKA Enterprise; if not, write to the
  37:Generated_Source\PSoC5/ErikaOS_cortex_mx_ee_irq_cng_cont.inc ****  * Free Software Foundation, Inc., 51 Franklin Street, Fifth Floor,
  38:Generated_Source\PSoC5/ErikaOS_cortex_mx_ee_irq_cng_cont.inc ****  * Boston, MA 02110-1301 USA.
  39:Generated_Source\PSoC5/ErikaOS_cortex_mx_ee_irq_cng_cont.inc ****  * ###*E*### */
  40:Generated_Source\PSoC5/ErikaOS_cortex_mx_ee_irq_cng_cont.inc **** 
  41:Generated_Source\PSoC5/ErikaOS_cortex_mx_ee_irq_cng_cont.inc ****  /** 
  42:Generated_Source\PSoC5/ErikaOS_cortex_mx_ee_irq_cng_cont.inc **** 	
  43:Generated_Source\PSoC5/ErikaOS_cortex_mx_ee_irq_cng_cont.inc **** 	@file	ee_irq_cng_cont.h
  44:Generated_Source\PSoC5/ErikaOS_cortex_mx_ee_irq_cng_cont.inc **** 	@brief	Function active the context change interrupt
  45:Generated_Source\PSoC5/ErikaOS_cortex_mx_ee_irq_cng_cont.inc **** 	@author	Gianluca Franchino
  46:Generated_Source\PSoC5/ErikaOS_cortex_mx_ee_irq_cng_cont.inc **** 	@author	Giuseppe Serano
  47:Generated_Source\PSoC5/ErikaOS_cortex_mx_ee_irq_cng_cont.inc **** 	@date	2012
  48:Generated_Source\PSoC5/ErikaOS_cortex_mx_ee_irq_cng_cont.inc **** */ 
  49:Generated_Source\PSoC5/ErikaOS_cortex_mx_ee_irq_cng_cont.inc ****     
  50:Generated_Source\PSoC5/ErikaOS_cortex_mx_ee_irq_cng_cont.inc **** /*
  51:Generated_Source\PSoC5/ErikaOS_cortex_mx_ee_irq_cng_cont.inc ****  * PSoC Port and API Generation
  52:Generated_Source\PSoC5/ErikaOS_cortex_mx_ee_irq_cng_cont.inc ****  * Carlos Fernando Meier Martinez
  53:Generated_Source\PSoC5/ErikaOS_cortex_mx_ee_irq_cng_cont.inc ****  * Hochschule Darmstadt, Germany. 2017.
  54:Generated_Source\PSoC5/ErikaOS_cortex_mx_ee_irq_cng_cont.inc ****  */
  55:Generated_Source\PSoC5/ErikaOS_cortex_mx_ee_irq_cng_cont.inc **** 
  56:Generated_Source\PSoC5/ErikaOS_cortex_mx_ee_irq_cng_cont.inc **** #ifndef __INCLUDE_CORTEX_MX_IRQ_CNG_CONTEXT_H__
  57:Generated_Source\PSoC5/ErikaOS_cortex_mx_ee_irq_cng_cont.inc **** #define __INCLUDE_CORTEX_MX_IRQ_CNG_CONTEXT_H__
  58:Generated_Source\PSoC5/ErikaOS_cortex_mx_ee_irq_cng_cont.inc **** 
  59:Generated_Source\PSoC5/ErikaOS_cortex_mx_ee_irq_cng_cont.inc **** #ifdef __GNU__
  60:Generated_Source\PSoC5/ErikaOS_cortex_mx_ee_irq_cng_cont.inc **** #include "ErikaOS_common_ee_compiler_gcc.inc"
  61:Generated_Source\PSoC5/ErikaOS_cortex_mx_ee_irq_cng_cont.inc **** #endif
  62:Generated_Source\PSoC5/ErikaOS_cortex_mx_ee_irq_cng_cont.inc **** 
  63:Generated_Source\PSoC5/ErikaOS_cortex_mx_ee_irq_cng_cont.inc **** /* Implemented in ee_<compiler>_change_context_isr.s */
  64:Generated_Source\PSoC5/ErikaOS_cortex_mx_ee_irq_cng_cont.inc **** extern void EE_switch_context(void);
  65:Generated_Source\PSoC5/ErikaOS_cortex_mx_ee_irq_cng_cont.inc **** 
  66:Generated_Source\PSoC5/ErikaOS_cortex_mx_ee_irq_cng_cont.inc **** __INLINE__ void  EE_cortex_mx_IRQ_active_change_context(void)
  67:Generated_Source\PSoC5/ErikaOS_cortex_mx_ee_irq_cng_cont.inc **** {
  68:Generated_Source\PSoC5/ErikaOS_cortex_mx_ee_irq_cng_cont.inc **** 	EE_switch_context();
 500              		.loc 5 68 0 is_stmt 1 discriminator 4
 501 007c FFF7FEFF 		bl	EE_switch_context
 502              	.LVL45:
 503              	.L27:
 504              	.LBE107:
 505              	.LBE106:
ARM GAS  C:\Users\agila\AppData\Local\Temp\ccuh57Vd.s 			page 25


 506              	.LBB108:
 507              	.LBB109:
 191:Generated_Source\PSoC5/ErikaOS_cortex_mx_ee_cpu.inc **** #endif	/* !__KEIL__ */
 508              		.loc 3 191 0 discriminator 6
 509              		.syntax unified
 510              	@ 191 "Generated_Source\PSoC5/ErikaOS_cortex_mx_ee_cpu.inc" 1
 511 0080 62B6     		cpsie i
 512              	@ 0 "" 2
 513              		.thumb
 514              		.syntax unified
 515              	.LBE109:
 516              	.LBE108:
 154:source\asw/main.c **** {
 517              		.loc 1 154 0 discriminator 6
 518 0082 BDE81940 		pop	{r0, r3, r4, lr}
 519              		.cfi_restore 14
 520              		.cfi_restore 4
 521              		.cfi_restore 3
 522              		.cfi_restore 0
 523              		.cfi_def_cfa_offset 0
 524 0086 8546     		mov	sp, r0
 525 0088 7047     		bx	lr
 526              	.L30:
 527 008a 00BF     		.align	2
 528              	.L29:
 529 008c 04ED00E0 		.word	-536810236
 530 0090 20ED00E0 		.word	-536810208
 531 0094 00000000 		.word	EE_IRQ_nesting_level
 532              		.cfi_endproc
 533              	.LFE117:
 534              		.size	systick_handler, .-systick_handler
 535              		.section	.text.ISR2_isr_button,"ax",%progbits
 536              		.align	2
 537              		.global	ISR2_isr_button
 538              		.thumb
 539              		.thumb_func
 540              		.type	ISR2_isr_button, %function
 541              	ISR2_isr_button:
 542              	.LFB120:
 157:source\asw/main.c **** }
 158:source\asw/main.c **** 
 159:source\asw/main.c **** ISR2(isr_button)
 160:source\asw/main.c **** {      
 543              		.loc 1 160 0
 544              		.cfi_startproc
 545              		@ args = 0, pretend = 0, frame = 0
 546              		@ frame_needed = 0, uses_anonymous_args = 0
 547 0000 08B5     		push	{r3, lr}
 548              		.cfi_def_cfa_offset 8
 549              		.cfi_offset 3, -8
 550              		.cfi_offset 14, -4
 161:source\asw/main.c ****     if (BUTTON_IsPressed(BUTTON_LEFT)) { //Button left is button 1 and in case of 2 in 7 segment di
 551              		.loc 1 161 0
 552 0002 0020     		movs	r0, #0
 553 0004 FFF7FEFF 		bl	BUTTON_IsPressed
 554              	.LVL46:
 555 0008 20B1     		cbz	r0, .L32
ARM GAS  C:\Users\agila\AppData\Local\Temp\ccuh57Vd.s 			page 26


 162:source\asw/main.c ****         SetEvent(tsk_game, ev_buttonLeft);
 556              		.loc 1 162 0
 557 000a 0121     		movs	r1, #1
 558 000c 0220     		movs	r0, #2
 559 000e FFF7FEFF 		bl	EE_oo_SetEvent
 560              	.LVL47:
 561 0012 08BD     		pop	{r3, pc}
 562              	.L32:
 163:source\asw/main.c ****     } else if (BUTTON_IsPressed(BUTTON_RIGHT)) { //Button right is button 2 and in case of 1 in 7 s
 563              		.loc 1 163 0
 564 0014 0120     		movs	r0, #1
 565 0016 FFF7FEFF 		bl	BUTTON_IsPressed
 566              	.LVL48:
 567 001a 18B1     		cbz	r0, .L31
 164:source\asw/main.c ****         SetEvent(tsk_game, ev_buttonRight);
 568              		.loc 1 164 0
 569 001c 0221     		movs	r1, #2
 570 001e 0846     		mov	r0, r1
 571 0020 FFF7FEFF 		bl	EE_oo_SetEvent
 572              	.LVL49:
 573              	.L31:
 574 0024 08BD     		pop	{r3, pc}
 575              		.cfi_endproc
 576              	.LFE120:
 577              		.size	ISR2_isr_button, .-ISR2_isr_button
 578 0026 00BF     		.section	.text.isr_button,"ax",%progbits
 579              		.align	2
 580              		.global	isr_button
 581              		.thumb
 582              		.thumb_func
 583              		.type	isr_button, %function
 584              	isr_button:
 585              	.LFB119:
 159:source\asw/main.c **** {      
 586              		.loc 1 159 0
 587              		.cfi_startproc
 588              		@ Stack Align: May be called with mis-aligned SP.
 589              		@ args = 0, pretend = 0, frame = 0
 590              		@ frame_needed = 0, uses_anonymous_args = 0
 591 0000 6846     		mov	r0, sp
 592              		.cfi_register 13, 0
 593 0002 20F00701 		bic	r1, r0, #7
 594 0006 8D46     		mov	sp, r1
 595 0008 19B5     		push	{r0, r3, r4, lr}
 596              		.cfi_def_cfa_offset 16
 597              		.cfi_offset 13, -16
 598              		.cfi_offset 3, -12
 599              		.cfi_offset 4, -8
 600              		.cfi_offset 14, -4
 601              	.LVL50:
 602              	.LBB134:
 603              	.LBB135:
 211:Generated_Source\PSoC5/ErikaOS_cortex_mx_ee_cpu.inc **** #endif	/* !__KEIL__ */
 604              		.loc 3 211 0
 605              		.syntax unified
 606              	@ 211 "Generated_Source\PSoC5/ErikaOS_cortex_mx_ee_cpu.inc" 1
 607 000a 72B6     		cpsid i
ARM GAS  C:\Users\agila\AppData\Local\Temp\ccuh57Vd.s 			page 27


 608              	@ 0 "" 2
 609              		.thumb
 610              		.syntax unified
 611              	.LBE135:
 612              	.LBE134:
 613              	.LBB136:
 614              	.LBB137:
 325:Generated_Source\PSoC5/ErikaOS_cortex_mx_ee_cpu.inc **** #else
 615              		.loc 3 325 0
 616              		.syntax unified
 617              	@ 325 "Generated_Source\PSoC5/ErikaOS_cortex_mx_ee_cpu.inc" 1
 618 000c EFF31184 		MRS r4, BASEPRI
 619              	@ 0 "" 2
 620              	.LVL51:
 621              		.thumb
 622              		.syntax unified
 623              	.LBE137:
 624              	.LBE136:
 625              	.LBB138:
 626              	.LBB139:
 372:Generated_Source\PSoC5/ErikaOS_cortex_mx_ee_cpu.inc ****   register EE_TYPEISR2PRIO prio = 0;
 627              		.loc 3 372 0
 628 0010 1E4B     		ldr	r3, .L41
 629 0012 1B68     		ldr	r3, [r3]
 630 0014 DBB2     		uxtb	r3, r3
 631              	.LVL52:
 375:Generated_Source\PSoC5/ErikaOS_cortex_mx_ee_cpu.inc ****     vectact -= EE_CORTEX_MX_SYSTICK_EXC_NUM + 1;
 632              		.loc 3 375 0
 633 0016 0F2B     		cmp	r3, #15
 634 0018 10D9     		bls	.L36
 376:Generated_Source\PSoC5/ErikaOS_cortex_mx_ee_cpu.inc ****     prio = NVIC_GET_PRI(vectact);
 635              		.loc 3 376 0
 636 001a 103B     		subs	r3, r3, #16
 637              	.LVL53:
 377:Generated_Source\PSoC5/ErikaOS_cortex_mx_ee_cpu.inc ****   }
 638              		.loc 3 377 0
 639 001c 23F00302 		bic	r2, r3, #3
 640 0020 02F16042 		add	r2, r2, #-536870912
 641 0024 02F56442 		add	r2, r2, #58368
 642 0028 1168     		ldr	r1, [r2]
 643 002a DB00     		lsls	r3, r3, #3
 644              	.LVL54:
 645 002c 03F01803 		and	r3, r3, #24
 646 0030 E022     		movs	r2, #224
 647 0032 9A40     		lsls	r2, r2, r3
 648 0034 0A40     		ands	r2, r2, r1
 649 0036 22FA03F3 		lsr	r3, r2, r3
 650              	.LVL55:
 651 003a 06E0     		b	.L37
 652              	.LVL56:
 653              	.L36:
 380:Generated_Source\PSoC5/ErikaOS_cortex_mx_ee_cpu.inc ****     prio = NVIC_SYS_PRI3_R >> NVIC_SYS_PRI3_TICK_S;
 654              		.loc 3 380 0
 655 003c 0F2B     		cmp	r3, #15
 656 003e 03D1     		bne	.L40
 657              		.loc 3 381 0
 658 0040 134B     		ldr	r3, .L41+4
ARM GAS  C:\Users\agila\AppData\Local\Temp\ccuh57Vd.s 			page 28


 659              	.LVL57:
 660 0042 1B68     		ldr	r3, [r3]
 661 0044 1B0E     		lsrs	r3, r3, #24
 662              	.LVL58:
 663 0046 00E0     		b	.L37
 664              	.LVL59:
 665              	.L40:
 373:Generated_Source\PSoC5/ErikaOS_cortex_mx_ee_cpu.inc **** 
 666              		.loc 3 373 0
 667 0048 0023     		movs	r3, #0
 668              	.LVL60:
 669              	.L37:
 670              	.LBE139:
 671              	.LBE138:
 672              	.LBB140:
 673              	.LBB141:
 358:Generated_Source\PSoC5/ErikaOS_cortex_mx_ee_cpu.inc **** #else
 674              		.loc 3 358 0
 675              		.syntax unified
 676              	@ 358 "Generated_Source\PSoC5/ErikaOS_cortex_mx_ee_cpu.inc" 1
 677 004a 83F31188 		MSR BASEPRI, r3
 678              	@ 0 "" 2
 679              		.thumb
 680              		.syntax unified
 681              	.LBE141:
 682              	.LBE140:
 683              	.LBB142:
 684              	.LBB143:
  85:Generated_Source\PSoC5/ErikaOS_common_ee_irqstub.inc **** /*  EE_std_enableIRQ_nested() and EE_std_disableIRQ_nested() must be defined in
 685              		.loc 4 85 0
 686 004e 114A     		ldr	r2, .L41+8
 687 0050 1368     		ldr	r3, [r2]
 688 0052 0133     		adds	r3, r3, #1
 689 0054 1360     		str	r3, [r2]
 690              	.LBE143:
 691              	.LBE142:
 159:source\asw/main.c **** {      
 692              		.loc 1 159 0
 693 0056 012B     		cmp	r3, #1
 694 0058 01D1     		bne	.L38
 159:source\asw/main.c **** {      
 695              		.loc 1 159 0 is_stmt 0 discriminator 1
 696 005a FFF7FEFF 		bl	EE_cortex_mx_change_IRQ_stack
 697              	.LVL61:
 698              	.L38:
 699              	.LBB144:
 700              	.LBB145:
 191:Generated_Source\PSoC5/ErikaOS_cortex_mx_ee_cpu.inc **** #endif	/* !__KEIL__ */
 701              		.loc 3 191 0 is_stmt 1 discriminator 3
 702              		.syntax unified
 703              	@ 191 "Generated_Source\PSoC5/ErikaOS_cortex_mx_ee_cpu.inc" 1
 704 005e 62B6     		cpsie i
 705              	@ 0 "" 2
 706              		.thumb
 707              		.syntax unified
 708              	.LBE145:
 709              	.LBE144:
ARM GAS  C:\Users\agila\AppData\Local\Temp\ccuh57Vd.s 			page 29


 159:source\asw/main.c **** {      
 710              		.loc 1 159 0 discriminator 3
 711 0060 FFF7FEFF 		bl	ISR2_isr_button
 712              	.LVL62:
 713              	.LBB146:
 714              	.LBB147:
 211:Generated_Source\PSoC5/ErikaOS_cortex_mx_ee_cpu.inc **** #endif	/* !__KEIL__ */
 715              		.loc 3 211 0 discriminator 3
 716              		.syntax unified
 717              	@ 211 "Generated_Source\PSoC5/ErikaOS_cortex_mx_ee_cpu.inc" 1
 718 0064 72B6     		cpsid i
 719              	@ 0 "" 2
 720              	.LVL63:
 721              		.thumb
 722              		.syntax unified
 723              	.LBE147:
 724              	.LBE146:
 725              	.LBB148:
 726              	.LBB149:
 358:Generated_Source\PSoC5/ErikaOS_cortex_mx_ee_cpu.inc **** #else
 727              		.loc 3 358 0 discriminator 3
 728              		.syntax unified
 729              	@ 358 "Generated_Source\PSoC5/ErikaOS_cortex_mx_ee_cpu.inc" 1
 730 0066 84F31188 		MSR BASEPRI, r4
 731              	@ 0 "" 2
 732              	.LVL64:
 733              		.thumb
 734              		.syntax unified
 735              	.LBE149:
 736              	.LBE148:
 737              	.LBB150:
 738              	.LBB151:
 739              		.loc 4 102 0 discriminator 3
 740 006a FFF7FEFF 		bl	EE_IRQ_end_post_stub
 741              	.LVL65:
 742              	.LBE151:
 743              	.LBE150:
 744              	.LBB152:
 745              	.LBB153:
  84:Generated_Source\PSoC5/ErikaOS_common_ee_irqstub.inc **** __INLINE__ void  EE_increment_IRQ_nesting_level(void) { ++EE_IRQ_nesting_level; }
 746              		.loc 4 84 0 discriminator 3
 747 006e 094A     		ldr	r2, .L41+8
 748 0070 1368     		ldr	r3, [r2]
 749 0072 013B     		subs	r3, r3, #1
 750 0074 1360     		str	r3, [r2]
 751              	.LBE153:
 752              	.LBE152:
 159:source\asw/main.c **** {      
 753              		.loc 1 159 0 discriminator 3
 754 0076 1BB9     		cbnz	r3, .L39
 159:source\asw/main.c **** {      
 755              		.loc 1 159 0 is_stmt 0 discriminator 4
 756 0078 FFF7FEFF 		bl	EE_cortex_mx_change_IRQ_stack_back
 757              	.LVL66:
 758              	.LBB154:
 759              	.LBB155:
 760              		.loc 5 68 0 is_stmt 1 discriminator 4
ARM GAS  C:\Users\agila\AppData\Local\Temp\ccuh57Vd.s 			page 30


 761 007c FFF7FEFF 		bl	EE_switch_context
 762              	.LVL67:
 763              	.L39:
 764              	.LBE155:
 765              	.LBE154:
 766              	.LBB156:
 767              	.LBB157:
 191:Generated_Source\PSoC5/ErikaOS_cortex_mx_ee_cpu.inc **** #endif	/* !__KEIL__ */
 768              		.loc 3 191 0 discriminator 6
 769              		.syntax unified
 770              	@ 191 "Generated_Source\PSoC5/ErikaOS_cortex_mx_ee_cpu.inc" 1
 771 0080 62B6     		cpsie i
 772              	@ 0 "" 2
 773              		.thumb
 774              		.syntax unified
 775              	.LBE157:
 776              	.LBE156:
 159:source\asw/main.c **** {      
 777              		.loc 1 159 0 discriminator 6
 778 0082 BDE81940 		pop	{r0, r3, r4, lr}
 779              		.cfi_restore 14
 780              		.cfi_restore 4
 781              		.cfi_restore 3
 782              		.cfi_restore 0
 783              		.cfi_def_cfa_offset 0
 784 0086 8546     		mov	sp, r0
 785 0088 7047     		bx	lr
 786              	.L42:
 787 008a 00BF     		.align	2
 788              	.L41:
 789 008c 04ED00E0 		.word	-536810236
 790 0090 20ED00E0 		.word	-536810208
 791 0094 00000000 		.word	EE_IRQ_nesting_level
 792              		.cfi_endproc
 793              	.LFE119:
 794              		.size	isr_button, .-isr_button
 795              		.section	.rodata.str1.4,"aMS",%progbits,1
 796              		.align	2
 797              	.LC0:
 798 0000 0D0A0D0A 		.ascii	"\015\012\015\012============ Welcome to the Reactio"
 798      3D3D3D3D 
 798      3D3D3D3D 
 798      3D3D3D3D 
 798      2057656C 
 799 0027 6E204761 		.ascii	"n Game ============\015\012press one of the two but"
 799      6D65203D 
 799      3D3D3D3D 
 799      3D3D3D3D 
 799      3D3D3D0D 
 800 0054 746F6E73 		.ascii	"tons to start...\015\012\015\012\000"
 800      20746F20 
 800      73746172 
 800      742E2E2E 
 800      0D0A0D0A 
 801              		.text
 802              	.Letext0:
 803              		.file 6 "c:\\h_da softwares & projects\\psoc creator\\4.4\\psoc creator\\import\\gnu\\arm\\5.4.1\\
ARM GAS  C:\Users\agila\AppData\Local\Temp\ccuh57Vd.s 			page 31


 804              		.file 7 "c:\\h_da softwares & projects\\psoc creator\\4.4\\psoc creator\\import\\gnu\\arm\\5.4.1\\
 805              		.file 8 "Generated_Source\\PSoC5/ErikaOS_common_ee_types.inc"
 806              		.file 9 "Generated_Source\\PSoC5/ErikaOS_ee_oo_common.inc"
 807              		.file 10 ".\\source\\bsw/global.h"
 808              		.file 11 "Generated_Source\\PSoC5/ErikaOS_ee_oo_intfunc.inc"
 809              		.file 12 "Generated_Source\\PSoC5/ErikaOS_cortex_mx_ee_context.inc"
 810              		.file 13 "Generated_Source\\PSoC5/ErikaOS_common_ee_primitives.inc"
 811              		.file 14 "Generated_Source\\PSoC5/core_cm3.h"
 812              		.file 15 "Generated_Source\\PSoC5/ErikaOS_ee_oo_kernel.inc"
 813              		.file 16 ".\\source\\bsw\\LabBoard/seven.h"
 814              		.file 17 "Generated_Source\\PSoC5/UART_LOG.h"
 815              		.file 18 ".\\source\\bsw\\tft/tft.h"
 816              		.file 19 ".\\source\\bsw\\LabBoard/led.h"
 817              		.file 20 "source\\asw\\TimingAnalyzer.h"
 818              		.file 21 "source\\asw\\ReactionGame.h"
 819              		.file 22 "source\\asw\\ArcadianLight.h"
 820              		.file 23 "Generated_Source\\PSoC5/ErikaOS_ee_oo_irq.inc"
 821              		.file 24 "Generated_Source\\PSoC5/ErikaOS_cortex_mx_ee_irq.inc"
 822              		.file 25 ".\\source\\bsw\\LabBoard/button.h"