ARM GAS  C:\Users\agila\AppData\Local\Temp\cc2L0h3t.s 			page 1


   1              		.syntax unified
   2              		.cpu cortex-m3
   3              		.fpu softvfp
   4              		.eabi_attribute 20, 1
   5              		.eabi_attribute 21, 1
   6              		.eabi_attribute 23, 3
   7              		.eabi_attribute 24, 1
   8              		.eabi_attribute 25, 1
   9              		.eabi_attribute 26, 1
  10              		.eabi_attribute 30, 1
  11              		.eabi_attribute 34, 1
  12              		.eabi_attribute 18, 4
  13              		.thumb
  14              		.syntax unified
  15              		.file	"ReactionGame.c"
  16              		.text
  17              	.Ltext0:
  18              		.cfi_sections	.debug_frame
  19              		.section	.text.gameStateMachine,"ax",%progbits
  20              		.align	2
  21              		.global	gameStateMachine
  22              		.thumb
  23              		.thumb_func
  24              		.type	gameStateMachine, %function
  25              	gameStateMachine:
  26              	.LFB111:
  27              		.file 1 "source\\asw\\ReactionGame.c"
   1:source\asw/ReactionGame.c **** /**
   2:source\asw/ReactionGame.c **** * \file <ReactionGame.c>
   3:source\asw/ReactionGame.c **** * \author <AGILAN V S>
   4:source\asw/ReactionGame.c **** * \date <26-11-2025>
   5:source\asw/ReactionGame.c **** *
   6:source\asw/ReactionGame.c **** * \brief <Symbolic File name>   // ???
   7:source\asw/ReactionGame.c **** *
   8:source\asw/ReactionGame.c **** * \copyright Copyright ©2016
   9:source\asw/ReactionGame.c **** * Department of electrical engineering and information technology, Hochschule Darmstadt - Universit
  10:source\asw/ReactionGame.c **** * Permission to use, copy, modify, and distribute this software and its documentation for education
  11:source\asw/ReactionGame.c **** * (unless permitted by h_da) and official h_da projects, is hereby granted for enrolled students of
  12:source\asw/ReactionGame.c **** * this paragraph and the following paragraph appear in all copies, modifications, and distributions
  13:source\asw/ReactionGame.c **** * Contact Prof.Dr.-Ing. Peter Fromm, peter.fromm@h-da.de, Birkenweg 8 64295 Darmstadt - GERMANY for
  14:source\asw/ReactionGame.c **** *
  15:source\asw/ReactionGame.c **** * \warning This software is a PROTOTYPE version and is not designed or intended for use in producti
  16:source\asw/ReactionGame.c **** * The user represents and warrants that it will NOT use or redistribute the Software for such purpo
  17:source\asw/ReactionGame.c **** * This prototype is for research purposes only. This software is provided "AS IS," without a warran
  18:source\asw/ReactionGame.c **** */
  19:source\asw/ReactionGame.c **** 
  20:source\asw/ReactionGame.c **** /*****************************************************************************/
  21:source\asw/ReactionGame.c **** /* Include files                                                             */
  22:source\asw/ReactionGame.c **** /*****************************************************************************/
  23:source\asw/ReactionGame.c **** #include <stdio.h>
  24:source\asw/ReactionGame.c **** #include <string.h>
  25:source\asw/ReactionGame.c **** #include <stdlib.h>
  26:source\asw/ReactionGame.c **** #include "project.h"
  27:source\asw/ReactionGame.c **** #include "global.h"
  28:source\asw/ReactionGame.c **** 
  29:source\asw/ReactionGame.c **** #include "seven.h"
  30:source\asw/ReactionGame.c **** //#include "pins.h"
ARM GAS  C:\Users\agila\AppData\Local\Temp\cc2L0h3t.s 			page 2


  31:source\asw/ReactionGame.c **** #include "tft.h"
  32:source\asw/ReactionGame.c **** #include "UART_LOG.h"
  33:source\asw/ReactionGame.c **** 
  34:source\asw/ReactionGame.c **** #include "ReactionGame.h"
  35:source\asw/ReactionGame.c **** #include "TimingAnalyzer.h"
  36:source\asw/ReactionGame.c **** 
  37:source\asw/ReactionGame.c **** //#define OneShotAlarm
  38:source\asw/ReactionGame.c **** #define CyclicTask
  39:source\asw/ReactionGame.c **** 
  40:source\asw/ReactionGame.c **** /*****************************************************************************/
  41:source\asw/ReactionGame.c **** /* Local pre-processor symbols/macros ('#define')                            */
  42:source\asw/ReactionGame.c **** /*****************************************************************************/ 
  43:source\asw/ReactionGame.c **** #define RG_MAX_ROUNDS          (10UL)
  44:source\asw/ReactionGame.c **** #define RG_TIMEOUT_TIME_MS     (1000UL)
  45:source\asw/ReactionGame.c **** 
  46:source\asw/ReactionGame.c **** /*****************************************************************************/
  47:source\asw/ReactionGame.c **** /* Global variable definitions (declared in header file with 'extern')       */
  48:source\asw/ReactionGame.c **** /*****************************************************************************/
  49:source\asw/ReactionGame.c **** 
  50:source\asw/ReactionGame.c **** /*****************************************************************************/
  51:source\asw/ReactionGame.c **** /* Local type definitions ('typedef')                                        */
  52:source\asw/ReactionGame.c **** /*****************************************************************************/
  53:source\asw/ReactionGame.c **** 
  54:source\asw/ReactionGame.c **** /*****************************************************************************/
  55:source\asw/ReactionGame.c **** /* Local variable definitions ('static')                                     */
  56:source\asw/ReactionGame.c **** /*****************************************************************************/
  57:source\asw/ReactionGame.c **** static TA_t analyzerGame;
  58:source\asw/ReactionGame.c **** volatile static RG_t game = {RG_STATE_WAIT, 0, 0, 0};
  59:source\asw/ReactionGame.c **** 
  60:source\asw/ReactionGame.c **** volatile static uint16_t ra_g_rndWait_ms = 0;          // random delay until number appears
  61:source\asw/ReactionGame.c **** volatile static uint16_t ra_g_reactionTimeout_ms = 0;  // max allowed reaction time
  62:source\asw/ReactionGame.c **** volatile static uint8_t ra_g_tftScore = 0;             // score in tft
  63:source\asw/ReactionGame.c **** 
  64:source\asw/ReactionGame.c **** /*****************************************************************************/
  65:source\asw/ReactionGame.c **** /* Local function prototypes ('static')                                      */
  66:source\asw/ReactionGame.c **** /*****************************************************************************/
  67:source\asw/ReactionGame.c **** 
  68:source\asw/ReactionGame.c **** /*****************************************************************************/
  69:source\asw/ReactionGame.c **** /* Function implementation - global ('extern') and local ('static')          */
  70:source\asw/ReactionGame.c **** /*****************************************************************************/
  71:source\asw/ReactionGame.c **** 
  72:source\asw/ReactionGame.c **** /********************************************************************************
  73:source\asw/ReactionGame.c ****  * API Definitions
  74:source\asw/ReactionGame.c ****  ********************************************************************************/
  75:source\asw/ReactionGame.c **** 
  76:source\asw/ReactionGame.c **** RC_t gameStateMachine(EventMaskType ev)
  77:source\asw/ReactionGame.c **** {
  28              		.loc 1 77 0
  29              		.cfi_startproc
  30              		@ args = 0, pretend = 0, frame = 72
  31              		@ frame_needed = 0, uses_anonymous_args = 0
  32              	.LVL0:
  33 0000 30B5     		push	{r4, r5, lr}
  34              		.cfi_def_cfa_offset 12
  35              		.cfi_offset 4, -12
  36              		.cfi_offset 5, -8
  37              		.cfi_offset 14, -4
ARM GAS  C:\Users\agila\AppData\Local\Temp\cc2L0h3t.s 			page 3


  38 0002 95B0     		sub	sp, sp, #84
  39              		.cfi_def_cfa_offset 96
  40 0004 0446     		mov	r4, r0
  41              	.LVL1:
  78:source\asw/ReactionGame.c ****     RC_t res = RC_SUCCESS;
  79:source\asw/ReactionGame.c ****     
  80:source\asw/ReactionGame.c ****     TA_create((TA_t *)&analyzerGame, TA_MODE_DWT, NULL_PTR, "Game Analyzer"); // do it here or wher
  42              		.loc 1 80 0
  43 0006 644B     		ldr	r3, .L13
  44 0008 0022     		movs	r2, #0
  45 000a 1146     		mov	r1, r2
  46 000c 6348     		ldr	r0, .L13+4
  47              	.LVL2:
  48 000e FFF7FEFF 		bl	TA_create
  49              	.LVL3:
  81:source\asw/ReactionGame.c ****     
  82:source\asw/ReactionGame.c ****     static uint8_t l_correctPress = 0;
  83:source\asw/ReactionGame.c ****     
  84:source\asw/ReactionGame.c ****     switch(game.rg_curState)
  50              		.loc 1 84 0
  51 0012 634B     		ldr	r3, .L13+8
  52 0014 1B78     		ldrb	r3, [r3]	@ zero_extendqisi2
  53 0016 DBB2     		uxtb	r3, r3
  54 0018 022B     		cmp	r3, #2
  55 001a 20D0     		beq	.L3
  56 001c 032B     		cmp	r3, #3
  57 001e 38D0     		beq	.L4
  58 0020 012B     		cmp	r3, #1
  59 0022 40F0B680 		bne	.L2
  85:source\asw/ReactionGame.c ****     {
  86:source\asw/ReactionGame.c ****         case RG_STATE_IDLE: // what to do ???
  87:source\asw/ReactionGame.c ****         break;
  88:source\asw/ReactionGame.c ****         case RG_STATE_WAIT:
  89:source\asw/ReactionGame.c ****             if (ev & ev_buttonLeft || ev & ev_buttonRight)
  60              		.loc 1 89 0
  61 0026 14F0030F 		tst	r4, #3
  62 002a 00F0B280 		beq	.L2
  90:source\asw/ReactionGame.c ****             { //C //(N1)
  91:source\asw/ReactionGame.c ****                 // Generate random wait time. 1000 – 3000 ms
  92:source\asw/ReactionGame.c ****                 #ifdef CyclicTask
  93:source\asw/ReactionGame.c ****                 GetResource(res_rnd);
  63              		.loc 1 93 0
  64 002e 0020     		movs	r0, #0
  65 0030 FFF7FEFF 		bl	EE_oo_GetResource
  66              	.LVL4:
  94:source\asw/ReactionGame.c ****                 ra_g_rndWait_ms = (rand() % 2000) + 1000;
  67              		.loc 1 94 0
  68 0034 FFF7FEFF 		bl	rand
  69              	.LVL5:
  70 0038 5A4B     		ldr	r3, .L13+12
  71 003a 83FB0032 		smull	r3, r2, r3, r0
  72 003e C317     		asrs	r3, r0, #31
  73 0040 C3EBE213 		rsb	r3, r3, r2, asr #7
  74 0044 4FF4FA62 		mov	r2, #2000
  75 0048 02FB1303 		mls	r3, r2, r3, r0
  76 004c 03F57A73 		add	r3, r3, #1000
  77 0050 9BB2     		uxth	r3, r3
ARM GAS  C:\Users\agila\AppData\Local\Temp\cc2L0h3t.s 			page 4


  78 0052 524A     		ldr	r2, .L13+4
  79 0054 1383     		strh	r3, [r2, #24]	@ movhi
  95:source\asw/ReactionGame.c ****                 ReleaseResource(res_rnd);
  80              		.loc 1 95 0
  81 0056 0020     		movs	r0, #0
  82 0058 FFF7FEFF 		bl	EE_oo_ReleaseResource
  83              	.LVL6:
  84 005c 99E0     		b	.L2
  85              	.L3:
  96:source\asw/ReactionGame.c ****                 #endif
  97:source\asw/ReactionGame.c ****                 
  98:source\asw/ReactionGame.c ****                 #ifdef OneShotAlarm
  99:source\asw/ReactionGame.c ****                 ra_g_rndWait_ms = (rand() % 2000) + 1000;
 100:source\asw/ReactionGame.c ****                 SetRelAlarm(alrm_Tick1m, ra_g_rndWait_ms, 0); // (N6)
 101:source\asw/ReactionGame.c ****                 #endif
 102:source\asw/ReactionGame.c ****             } //S
 103:source\asw/ReactionGame.c ****         break;
 104:source\asw/ReactionGame.c ****         case RG_STATE_DISPLAY:
 105:source\asw/ReactionGame.c ****             if (ev & ev_randomDone)
  86              		.loc 1 105 0
  87 005e 14F0080F 		tst	r4, #8
  88 0062 00F09680 		beq	.L2
 106:source\asw/ReactionGame.c ****             {
 107:source\asw/ReactionGame.c ****                 // Show generatated random number on display
 108:source\asw/ReactionGame.c ****                 SEVEN_writeRandom(); // audio ???
  89              		.loc 1 108 0
  90 0066 FFF7FEFF 		bl	SEVEN_writeRandom
  91              	.LVL7:
 109:source\asw/ReactionGame.c ****                 
 110:source\asw/ReactionGame.c ****                 game.rg_roundPlayed++;
  92              		.loc 1 110 0
  93 006a 4D4C     		ldr	r4, .L13+8
  94              	.LVL8:
  95 006c E368     		ldr	r3, [r4, #12]
  96 006e 0133     		adds	r3, r3, #1
  97 0070 E360     		str	r3, [r4, #12]
 111:source\asw/ReactionGame.c ****                 
 112:source\asw/ReactionGame.c ****                 #ifdef CyclicTask
 113:source\asw/ReactionGame.c ****                 GetResource(res_out);
  98              		.loc 1 113 0
  99 0072 0120     		movs	r0, #1
 100 0074 FFF7FEFF 		bl	EE_oo_GetResource
 101              	.LVL9:
 114:source\asw/ReactionGame.c ****                 ra_g_reactionTimeout_ms = RG_TIMEOUT_TIME_MS;
 102              		.loc 1 114 0
 103 0078 484D     		ldr	r5, .L13+4
 104 007a 4FF47A73 		mov	r3, #1000
 105 007e 6B83     		strh	r3, [r5, #26]	@ movhi
 115:source\asw/ReactionGame.c ****                 ReleaseResource(res_out);
 106              		.loc 1 115 0
 107 0080 0120     		movs	r0, #1
 108 0082 FFF7FEFF 		bl	EE_oo_ReleaseResource
 109              	.LVL10:
 116:source\asw/ReactionGame.c ****                 #endif
 117:source\asw/ReactionGame.c ****                 
 118:source\asw/ReactionGame.c ****                 #ifdef OneShotAlarm
 119:source\asw/ReactionGame.c ****                 SetRelAlarm(alrm_Tick1m, ra_g_reactionTimeout_ms, 0); // (N7)
ARM GAS  C:\Users\agila\AppData\Local\Temp\cc2L0h3t.s 			page 5


 120:source\asw/ReactionGame.c ****                 #endif
 121:source\asw/ReactionGame.c ****                 
 122:source\asw/ReactionGame.c ****                 game.rg_curState = RG_STATE_PRESSED;
 110              		.loc 1 122 0
 111 0086 0323     		movs	r3, #3
 112 0088 2370     		strb	r3, [r4]
 123:source\asw/ReactionGame.c ****                 
 124:source\asw/ReactionGame.c ****                 TA_start((TA_t *)&analyzerGame);  
 113              		.loc 1 124 0
 114 008a 2846     		mov	r0, r5
 115 008c FFF7FEFF 		bl	TA_start
 116              	.LVL11:
 117 0090 7FE0     		b	.L2
 118              	.LVL12:
 119              	.L4:
 125:source\asw/ReactionGame.c ****             }//S
 126:source\asw/ReactionGame.c ****         break;
 127:source\asw/ReactionGame.c ****         case RG_STATE_PRESSED: 
 128:source\asw/ReactionGame.c ****             //C
 129:source\asw/ReactionGame.c ****             if (ev & ev_buttonLeft) // (N5)
 120              		.loc 1 129 0
 121 0092 14F0010F 		tst	r4, #1
 122 0096 21D0     		beq	.L6
 130:source\asw/ReactionGame.c ****             {
 131:source\asw/ReactionGame.c ****                 TA_stop((TA_t *)&analyzerGame);
 123              		.loc 1 131 0
 124 0098 4048     		ldr	r0, .L13+4
 125 009a FFF7FEFF 		bl	TA_stop
 126              	.LVL13:
 132:source\asw/ReactionGame.c ****                 
 133:source\asw/ReactionGame.c ****                 // Handle button 1 press
 134:source\asw/ReactionGame.c ****                 if (SEVEN_reg_Read() == 91) //(N2)
 127              		.loc 1 134 0
 128 009e FFF7FEFF 		bl	SEVEN_reg_Read
 129              	.LVL14:
 130 00a2 5B28     		cmp	r0, #91
 131 00a4 17D1     		bne	.L7
 132              	.LBB2:
 135:source\asw/ReactionGame.c ****                 { 
 136:source\asw/ReactionGame.c ****                     UART_LOG_PutString("Great - correct button pressed!\r\n");
 133              		.loc 1 136 0
 134 00a6 4048     		ldr	r0, .L13+16
 135 00a8 FFF7FEFF 		bl	UART_LOG_PutString
 136              	.LVL15:
 137:source\asw/ReactionGame.c ****                     
 138:source\asw/ReactionGame.c ****                     char buffer[60]; 
 139:source\asw/ReactionGame.c ****                     snprintf(buffer, sizeof(buffer), "Reaction time in ms: %u\r\n", TA_getElapsedTi
 137              		.loc 1 139 0
 138 00ac 3B4D     		ldr	r5, .L13+4
 139 00ae 2846     		mov	r0, r5
 140 00b0 FFF7FEFF 		bl	TA_getElapsedTimeInMs
 141              	.LVL16:
 142 00b4 0346     		mov	r3, r0
 143 00b6 3D4A     		ldr	r2, .L13+20
 144 00b8 3C21     		movs	r1, #60
 145 00ba 02A8     		add	r0, sp, #8
 146 00bc FFF7FEFF 		bl	snprintf
ARM GAS  C:\Users\agila\AppData\Local\Temp\cc2L0h3t.s 			page 6


 147              	.LVL17:
 140:source\asw/ReactionGame.c ****                     UART_LOG_PutString(buffer);
 148              		.loc 1 140 0
 149 00c0 02A8     		add	r0, sp, #8
 150 00c2 FFF7FEFF 		bl	UART_LOG_PutString
 151              	.LVL18:
 141:source\asw/ReactionGame.c ****                     
 142:source\asw/ReactionGame.c ****                     l_correctPress++;
 152              		.loc 1 142 0
 153 00c6 2B7F     		ldrb	r3, [r5, #28]	@ zero_extendqisi2
 154 00c8 0133     		adds	r3, r3, #1
 155 00ca 2B77     		strb	r3, [r5, #28]
 143:source\asw/ReactionGame.c ****                     game.rg_score++;
 156              		.loc 1 143 0
 157 00cc 344A     		ldr	r2, .L13+8
 158 00ce 9368     		ldr	r3, [r2, #8]
 159 00d0 0133     		adds	r3, r3, #1
 160 00d2 9360     		str	r3, [r2, #8]
 161              	.LBE2:
 162 00d4 02E0     		b	.L6
 163              	.L7:
 144:source\asw/ReactionGame.c ****                 } else
 145:source\asw/ReactionGame.c ****                 {
 146:source\asw/ReactionGame.c ****                     UART_LOG_PutString("Oops - wrong button pressed!\r\n");
 164              		.loc 1 146 0
 165 00d6 3648     		ldr	r0, .L13+24
 166 00d8 FFF7FEFF 		bl	UART_LOG_PutString
 167              	.LVL19:
 168              	.L6:
 147:source\asw/ReactionGame.c ****                 }
 148:source\asw/ReactionGame.c ****             } 
 149:source\asw/ReactionGame.c ****             if (ev & ev_buttonRight) 
 169              		.loc 1 149 0
 170 00dc 14F0020F 		tst	r4, #2
 171 00e0 21D0     		beq	.L8
 150:source\asw/ReactionGame.c ****             {
 151:source\asw/ReactionGame.c ****                 TA_stop((TA_t *)&analyzerGame);
 172              		.loc 1 151 0
 173 00e2 2E48     		ldr	r0, .L13+4
 174 00e4 FFF7FEFF 		bl	TA_stop
 175              	.LVL20:
 152:source\asw/ReactionGame.c ****                 
 153:source\asw/ReactionGame.c ****                 // Handle button 2 press
 154:source\asw/ReactionGame.c ****                 if (SEVEN_reg_Read() == 6) // (N3)
 176              		.loc 1 154 0
 177 00e8 FFF7FEFF 		bl	SEVEN_reg_Read
 178              	.LVL21:
 179 00ec 0628     		cmp	r0, #6
 180 00ee 17D1     		bne	.L9
 181              	.LBB3:
 155:source\asw/ReactionGame.c ****                 {   
 156:source\asw/ReactionGame.c ****                     UART_LOG_PutString("Great - correct button pressed!\r\n");
 182              		.loc 1 156 0
 183 00f0 2D48     		ldr	r0, .L13+16
 184 00f2 FFF7FEFF 		bl	UART_LOG_PutString
 185              	.LVL22:
 157:source\asw/ReactionGame.c ****                     
ARM GAS  C:\Users\agila\AppData\Local\Temp\cc2L0h3t.s 			page 7


 158:source\asw/ReactionGame.c ****                     char buffer[60]; 
 159:source\asw/ReactionGame.c ****                     snprintf(buffer, sizeof(buffer), "Reaction time in ms: %u\r\n", TA_getElapsedTi
 186              		.loc 1 159 0
 187 00f6 294D     		ldr	r5, .L13+4
 188 00f8 2846     		mov	r0, r5
 189 00fa FFF7FEFF 		bl	TA_getElapsedTimeInMs
 190              	.LVL23:
 191 00fe 0346     		mov	r3, r0
 192 0100 2A4A     		ldr	r2, .L13+20
 193 0102 3C21     		movs	r1, #60
 194 0104 02A8     		add	r0, sp, #8
 195 0106 FFF7FEFF 		bl	snprintf
 196              	.LVL24:
 160:source\asw/ReactionGame.c ****                     UART_LOG_PutString(buffer);
 197              		.loc 1 160 0
 198 010a 02A8     		add	r0, sp, #8
 199 010c FFF7FEFF 		bl	UART_LOG_PutString
 200              	.LVL25:
 161:source\asw/ReactionGame.c ****                     
 162:source\asw/ReactionGame.c ****                     l_correctPress++;
 201              		.loc 1 162 0
 202 0110 2B7F     		ldrb	r3, [r5, #28]	@ zero_extendqisi2
 203 0112 0133     		adds	r3, r3, #1
 204 0114 2B77     		strb	r3, [r5, #28]
 163:source\asw/ReactionGame.c ****                     game.rg_score++;
 205              		.loc 1 163 0
 206 0116 224A     		ldr	r2, .L13+8
 207 0118 9368     		ldr	r3, [r2, #8]
 208 011a 0133     		adds	r3, r3, #1
 209 011c 9360     		str	r3, [r2, #8]
 210              	.LBE3:
 211 011e 02E0     		b	.L8
 212              	.L9:
 164:source\asw/ReactionGame.c ****                 } else
 165:source\asw/ReactionGame.c ****                 {
 166:source\asw/ReactionGame.c ****                     UART_LOG_PutString("Oops - wrong button pressed!\r\n");
 213              		.loc 1 166 0
 214 0120 2348     		ldr	r0, .L13+24
 215 0122 FFF7FEFF 		bl	UART_LOG_PutString
 216              	.LVL26:
 217              	.L8:
 167:source\asw/ReactionGame.c ****                 }
 168:source\asw/ReactionGame.c ****             }
 169:source\asw/ReactionGame.c ****             if (ev & ev_timeout)
 218              		.loc 1 169 0
 219 0126 14F0040F 		tst	r4, #4
 220 012a 05D0     		beq	.L10
 170:source\asw/ReactionGame.c ****             {
 171:source\asw/ReactionGame.c ****                 TA_stop((TA_t *)&analyzerGame);
 221              		.loc 1 171 0
 222 012c 1B48     		ldr	r0, .L13+4
 223 012e FFF7FEFF 		bl	TA_stop
 224              	.LVL27:
 172:source\asw/ReactionGame.c ****                 
 173:source\asw/ReactionGame.c ****                 // Handle timeout
 174:source\asw/ReactionGame.c ****                 UART_LOG_PutString("\nToo slow!\r\n");
 225              		.loc 1 174 0
ARM GAS  C:\Users\agila\AppData\Local\Temp\cc2L0h3t.s 			page 8


 226 0132 2048     		ldr	r0, .L13+28
 227 0134 FFF7FEFF 		bl	UART_LOG_PutString
 228              	.LVL28:
 229              	.L10:
 175:source\asw/ReactionGame.c ****             }
 176:source\asw/ReactionGame.c ****             
 177:source\asw/ReactionGame.c ****             game.rg_totalTime += TA_getElapsedTimeInMs(&analyzerGame);
 230              		.loc 1 177 0
 231 0138 184D     		ldr	r5, .L13+4
 232 013a 2846     		mov	r0, r5
 233 013c FFF7FEFF 		bl	TA_getElapsedTimeInMs
 234              	.LVL29:
 235 0140 174C     		ldr	r4, .L13+8
 236              	.LVL30:
 237 0142 6368     		ldr	r3, [r4, #4]
 238 0144 1844     		add	r0, r0, r3
 239 0146 6060     		str	r0, [r4, #4]
 178:source\asw/ReactionGame.c ****             analyzerGame.elapsed_time = 0;
 240              		.loc 1 178 0
 241 0148 0023     		movs	r3, #0
 242 014a 2B61     		str	r3, [r5, #16]
 179:source\asw/ReactionGame.c ****             
 180:source\asw/ReactionGame.c ****             SEVEN_ClearAll();
 243              		.loc 1 180 0
 244 014c FFF7FEFF 		bl	SEVEN_ClearAll
 245              	.LVL31:
 181:source\asw/ReactionGame.c ****             
 182:source\asw/ReactionGame.c ****             UART_LOG_PutString("======================================================\r\n");
 246              		.loc 1 182 0
 247 0150 1948     		ldr	r0, .L13+32
 248 0152 FFF7FEFF 		bl	UART_LOG_PutString
 249              	.LVL32:
 183:source\asw/ReactionGame.c ****             
 184:source\asw/ReactionGame.c ****             // Print the scoure after 1 game (10 rounds)
 185:source\asw/ReactionGame.c ****             if (RG_MAX_ROUNDS == game.rg_roundPlayed)
 250              		.loc 1 185 0
 251 0156 E368     		ldr	r3, [r4, #12]
 252 0158 0A2B     		cmp	r3, #10
 253 015a 17D1     		bne	.L11
 254              	.LBB4:
 186:source\asw/ReactionGame.c ****             {
 187:source\asw/ReactionGame.c ****                 game.rg_roundPlayed = 0;
 255              		.loc 1 187 0
 256 015c 0023     		movs	r3, #0
 257 015e E360     		str	r3, [r4, #12]
 188:source\asw/ReactionGame.c ****                 
 189:source\asw/ReactionGame.c ****                 uint32_t avg_time = game.rg_totalTime / l_correctPress;
 258              		.loc 1 189 0
 259 0160 6368     		ldr	r3, [r4, #4]
 260 0162 2A7F     		ldrb	r2, [r5, #28]	@ zero_extendqisi2
 261 0164 B3FBF2F2 		udiv	r2, r3, r2
 262              	.LVL33:
 190:source\asw/ReactionGame.c **** 
 191:source\asw/ReactionGame.c ****                 char buffer[70];
 192:source\asw/ReactionGame.c ****                 snprintf(buffer, sizeof(buffer), "Score: %u | Total Time: %ums | Avg Time: %ums\r\n
 263              		.loc 1 192 0
 264 0168 A368     		ldr	r3, [r4, #8]
ARM GAS  C:\Users\agila\AppData\Local\Temp\cc2L0h3t.s 			page 9


 265 016a 6168     		ldr	r1, [r4, #4]
 266 016c 0192     		str	r2, [sp, #4]
 267 016e 0091     		str	r1, [sp]
 268 0170 124A     		ldr	r2, .L13+36
 269              	.LVL34:
 270 0172 4621     		movs	r1, #70
 271 0174 02A8     		add	r0, sp, #8
 272 0176 FFF7FEFF 		bl	snprintf
 273              	.LVL35:
 193:source\asw/ReactionGame.c ****                 UART_LOG_PutString(buffer);
 274              		.loc 1 193 0
 275 017a 02A8     		add	r0, sp, #8
 276 017c FFF7FEFF 		bl	UART_LOG_PutString
 277              	.LVL36:
 194:source\asw/ReactionGame.c ****                 
 195:source\asw/ReactionGame.c ****                 UART_LOG_PutString("======================================================\r\n");
 278              		.loc 1 195 0
 279 0180 0D48     		ldr	r0, .L13+32
 280 0182 FFF7FEFF 		bl	UART_LOG_PutString
 281              	.LVL37:
 196:source\asw/ReactionGame.c ****                 
 197:source\asw/ReactionGame.c ****                 ra_g_tftScore = game.rg_score;
 282              		.loc 1 197 0
 283 0186 A368     		ldr	r3, [r4, #8]
 284 0188 DBB2     		uxtb	r3, r3
 285 018a 6B77     		strb	r3, [r5, #29]
 286              	.L11:
 287              	.LBE4:
 198:source\asw/ReactionGame.c ****                 //SetRelAlarm(alrm_tft,1,0); //(N4)
 199:source\asw/ReactionGame.c ****             } 
 200:source\asw/ReactionGame.c ****             
 201:source\asw/ReactionGame.c ****             game.rg_curState = RG_STATE_WAIT;
 288              		.loc 1 201 0
 289 018c 0122     		movs	r2, #1
 290 018e 044B     		ldr	r3, .L13+8
 291 0190 1A70     		strb	r2, [r3]
 292              	.L2:
 202:source\asw/ReactionGame.c ****         break;
 203:source\asw/ReactionGame.c ****         default:
 204:source\asw/ReactionGame.c ****             // do nothing
 205:source\asw/ReactionGame.c ****         break;
 206:source\asw/ReactionGame.c ****     }
 207:source\asw/ReactionGame.c ****     return res;
 208:source\asw/ReactionGame.c **** }
 293              		.loc 1 208 0
 294 0192 0020     		movs	r0, #0
 295 0194 15B0     		add	sp, sp, #84
 296              		.cfi_def_cfa_offset 12
 297              		@ sp needed
 298 0196 30BD     		pop	{r4, r5, pc}
 299              	.L14:
 300              		.align	2
 301              	.L13:
 302 0198 00000000 		.word	.LC0
 303 019c 00000000 		.word	.LANCHOR0
 304 01a0 00000000 		.word	.LANCHOR1
 305 01a4 D34D6210 		.word	274877907
ARM GAS  C:\Users\agila\AppData\Local\Temp\cc2L0h3t.s 			page 10


 306 01a8 10000000 		.word	.LC1
 307 01ac 34000000 		.word	.LC2
 308 01b0 50000000 		.word	.LC3
 309 01b4 70000000 		.word	.LC4
 310 01b8 80000000 		.word	.LC5
 311 01bc BC000000 		.word	.LC6
 312              		.cfi_endproc
 313              	.LFE111:
 314              		.size	gameStateMachine, .-gameStateMachine
 315              		.section	.text.randomTimeCheck,"ax",%progbits
 316              		.align	2
 317              		.global	randomTimeCheck
 318              		.thumb
 319              		.thumb_func
 320              		.type	randomTimeCheck, %function
 321              	randomTimeCheck:
 322              	.LFB112:
 209:source\asw/ReactionGame.c **** 
 210:source\asw/ReactionGame.c **** #ifdef CyclicTask
 211:source\asw/ReactionGame.c **** 
 212:source\asw/ReactionGame.c **** RC_t randomTimeCheck(void)
 213:source\asw/ReactionGame.c **** {
 323              		.loc 1 213 0
 324              		.cfi_startproc
 325              		@ args = 0, pretend = 0, frame = 0
 326              		@ frame_needed = 0, uses_anonymous_args = 0
 327              	.LVL38:
 214:source\asw/ReactionGame.c ****     RC_t res = RC_SUCCESS;
 215:source\asw/ReactionGame.c ****     
 216:source\asw/ReactionGame.c ****     if (ra_g_rndWait_ms > 0)
 328              		.loc 1 216 0
 329 0000 0F4B     		ldr	r3, .L19
 330 0002 1B8B     		ldrh	r3, [r3, #24]
 331 0004 9BB2     		uxth	r3, r3
 332 0006 C3B1     		cbz	r3, .L18
 213:source\asw/ReactionGame.c ****     RC_t res = RC_SUCCESS;
 333              		.loc 1 213 0
 334 0008 10B5     		push	{r4, lr}
 335              		.cfi_def_cfa_offset 8
 336              		.cfi_offset 4, -8
 337              		.cfi_offset 14, -4
 217:source\asw/ReactionGame.c ****     {
 218:source\asw/ReactionGame.c ****         GetResource(res_rnd);
 338              		.loc 1 218 0
 339 000a 0020     		movs	r0, #0
 340 000c FFF7FEFF 		bl	EE_oo_GetResource
 341              	.LVL39:
 219:source\asw/ReactionGame.c ****         ra_g_rndWait_ms--;
 342              		.loc 1 219 0
 343 0010 0B4C     		ldr	r4, .L19
 344 0012 238B     		ldrh	r3, [r4, #24]
 345 0014 9BB2     		uxth	r3, r3
 346 0016 013B     		subs	r3, r3, #1
 347 0018 9BB2     		uxth	r3, r3
 348 001a 2383     		strh	r3, [r4, #24]	@ movhi
 220:source\asw/ReactionGame.c ****         ReleaseResource(res_rnd);
 349              		.loc 1 220 0
ARM GAS  C:\Users\agila\AppData\Local\Temp\cc2L0h3t.s 			page 11


 350 001c 0020     		movs	r0, #0
 351 001e FFF7FEFF 		bl	EE_oo_ReleaseResource
 352              	.LVL40:
 221:source\asw/ReactionGame.c ****         
 222:source\asw/ReactionGame.c ****         if (ra_g_rndWait_ms == 0)
 353              		.loc 1 222 0
 354 0022 238B     		ldrh	r3, [r4, #24]
 355 0024 9BB2     		uxth	r3, r3
 356 0026 33B9     		cbnz	r3, .L16
 223:source\asw/ReactionGame.c ****         {//C
 224:source\asw/ReactionGame.c ****             game.rg_curState = RG_STATE_DISPLAY;
 357              		.loc 1 224 0
 358 0028 0222     		movs	r2, #2
 359 002a 064B     		ldr	r3, .L19+4
 360 002c 1A70     		strb	r2, [r3]
 225:source\asw/ReactionGame.c ****             
 226:source\asw/ReactionGame.c ****             //Signal to tsk_Game that random delay has ended
 227:source\asw/ReactionGame.c ****             SetEvent(tsk_game, ev_randomDone);  // set event inside function is ok ???  
 361              		.loc 1 227 0
 362 002e 0821     		movs	r1, #8
 363 0030 0320     		movs	r0, #3
 364 0032 FFF7FEFF 		bl	EE_oo_SetEvent
 365              	.LVL41:
 366              	.L16:
 228:source\asw/ReactionGame.c ****         }
 229:source\asw/ReactionGame.c ****     }
 230:source\asw/ReactionGame.c ****     return res;
 231:source\asw/ReactionGame.c **** }
 367              		.loc 1 231 0
 368 0036 0020     		movs	r0, #0
 369 0038 10BD     		pop	{r4, pc}
 370              	.L18:
 371              		.cfi_def_cfa_offset 0
 372              		.cfi_restore 4
 373              		.cfi_restore 14
 374 003a 0020     		movs	r0, #0
 375 003c 7047     		bx	lr
 376              	.L20:
 377 003e 00BF     		.align	2
 378              	.L19:
 379 0040 00000000 		.word	.LANCHOR0
 380 0044 00000000 		.word	.LANCHOR1
 381              		.cfi_endproc
 382              	.LFE112:
 383              		.size	randomTimeCheck, .-randomTimeCheck
 384              		.section	.text.timeoutCheck,"ax",%progbits
 385              		.align	2
 386              		.global	timeoutCheck
 387              		.thumb
 388              		.thumb_func
 389              		.type	timeoutCheck, %function
 390              	timeoutCheck:
 391              	.LFB113:
 232:source\asw/ReactionGame.c **** 
 233:source\asw/ReactionGame.c **** RC_t timeoutCheck(void)
 234:source\asw/ReactionGame.c **** {
 392              		.loc 1 234 0
ARM GAS  C:\Users\agila\AppData\Local\Temp\cc2L0h3t.s 			page 12


 393              		.cfi_startproc
 394              		@ args = 0, pretend = 0, frame = 0
 395              		@ frame_needed = 0, uses_anonymous_args = 0
 396              	.LVL42:
 235:source\asw/ReactionGame.c ****     RC_t res = RC_SUCCESS;
 236:source\asw/ReactionGame.c **** 
 237:source\asw/ReactionGame.c ****     if (ra_g_reactionTimeout_ms > 0)
 397              		.loc 1 237 0
 398 0000 0D4B     		ldr	r3, .L25
 399 0002 5B8B     		ldrh	r3, [r3, #26]
 400 0004 9BB2     		uxth	r3, r3
 401 0006 ABB1     		cbz	r3, .L24
 234:source\asw/ReactionGame.c ****     RC_t res = RC_SUCCESS;
 402              		.loc 1 234 0
 403 0008 10B5     		push	{r4, lr}
 404              		.cfi_def_cfa_offset 8
 405              		.cfi_offset 4, -8
 406              		.cfi_offset 14, -4
 238:source\asw/ReactionGame.c ****     {
 239:source\asw/ReactionGame.c ****         GetResource(res_out);
 407              		.loc 1 239 0
 408 000a 0120     		movs	r0, #1
 409 000c FFF7FEFF 		bl	EE_oo_GetResource
 410              	.LVL43:
 240:source\asw/ReactionGame.c ****         ra_g_reactionTimeout_ms--;
 411              		.loc 1 240 0
 412 0010 094C     		ldr	r4, .L25
 413 0012 638B     		ldrh	r3, [r4, #26]
 414 0014 9BB2     		uxth	r3, r3
 415 0016 013B     		subs	r3, r3, #1
 416 0018 9BB2     		uxth	r3, r3
 417 001a 6383     		strh	r3, [r4, #26]	@ movhi
 241:source\asw/ReactionGame.c ****         ReleaseResource(res_out);
 418              		.loc 1 241 0
 419 001c 0120     		movs	r0, #1
 420 001e FFF7FEFF 		bl	EE_oo_ReleaseResource
 421              	.LVL44:
 242:source\asw/ReactionGame.c ****         
 243:source\asw/ReactionGame.c ****         if (ra_g_reactionTimeout_ms == 0)
 422              		.loc 1 243 0
 423 0022 638B     		ldrh	r3, [r4, #26]
 424 0024 9BB2     		uxth	r3, r3
 425 0026 1BB9     		cbnz	r3, .L22
 244:source\asw/ReactionGame.c ****         {//C
 245:source\asw/ReactionGame.c ****             //Signal to tsk_Game that the user failed to react in time
 246:source\asw/ReactionGame.c ****             SetEvent(tsk_game, ev_timeout);
 426              		.loc 1 246 0
 427 0028 0421     		movs	r1, #4
 428 002a 0320     		movs	r0, #3
 429 002c FFF7FEFF 		bl	EE_oo_SetEvent
 430              	.LVL45:
 431              	.L22:
 247:source\asw/ReactionGame.c ****         }
 248:source\asw/ReactionGame.c ****     }
 249:source\asw/ReactionGame.c ****     return res;
 250:source\asw/ReactionGame.c **** }
 432              		.loc 1 250 0
ARM GAS  C:\Users\agila\AppData\Local\Temp\cc2L0h3t.s 			page 13


 433 0030 0020     		movs	r0, #0
 434 0032 10BD     		pop	{r4, pc}
 435              	.L24:
 436              		.cfi_def_cfa_offset 0
 437              		.cfi_restore 4
 438              		.cfi_restore 14
 439 0034 0020     		movs	r0, #0
 440 0036 7047     		bx	lr
 441              	.L26:
 442              		.align	2
 443              	.L25:
 444 0038 00000000 		.word	.LANCHOR0
 445              		.cfi_endproc
 446              	.LFE113:
 447              		.size	timeoutCheck, .-timeoutCheck
 448              		.data
 449              		.align	2
 450              		.set	.LANCHOR1,. + 0
 451              		.type	game, %object
 452              		.size	game, 16
 453              	game:
 454 0000 01       		.byte	1
 455 0001 000000   		.space	3
 456 0004 00000000 		.word	0
 457 0008 00000000 		.word	0
 458 000c 00000000 		.word	0
 459              		.section	.rodata.str1.4,"aMS",%progbits,1
 460              		.align	2
 461              	.LC0:
 462 0000 47616D65 		.ascii	"Game Analyzer\000"
 462      20416E61 
 462      6C797A65 
 462      7200
 463 000e 0000     		.space	2
 464              	.LC1:
 465 0010 47726561 		.ascii	"Great - correct button pressed!\015\012\000"
 465      74202D20 
 465      636F7272 
 465      65637420 
 465      62757474 
 466 0032 0000     		.space	2
 467              	.LC2:
 468 0034 52656163 		.ascii	"Reaction time in ms: %u\015\012\000"
 468      74696F6E 
 468      2074696D 
 468      6520696E 
 468      206D733A 
 469 004e 0000     		.space	2
 470              	.LC3:
 471 0050 4F6F7073 		.ascii	"Oops - wrong button pressed!\015\012\000"
 471      202D2077 
 471      726F6E67 
 471      20627574 
 471      746F6E20 
 472 006f 00       		.space	1
 473              	.LC4:
 474 0070 0A546F6F 		.ascii	"\012Too slow!\015\012\000"
ARM GAS  C:\Users\agila\AppData\Local\Temp\cc2L0h3t.s 			page 14


 474      20736C6F 
 474      77210D0A 
 474      00
 475 007d 000000   		.space	3
 476              	.LC5:
 477 0080 3D3D3D3D 		.ascii	"==================================================="
 477      3D3D3D3D 
 477      3D3D3D3D 
 477      3D3D3D3D 
 477      3D3D3D3D 
 478 00b3 3D3D3D0D 		.ascii	"===\015\012\000"
 478      0A00
 479 00b9 000000   		.space	3
 480              	.LC6:
 481 00bc 53636F72 		.ascii	"Score: %u | Total Time: %ums | Avg Time: %ums\015\012"
 481      653A2025 
 481      75207C20 
 481      546F7461 
 481      6C205469 
 482 00eb 00       		.ascii	"\000"
 483              		.bss
 484              		.align	2
 485              		.set	.LANCHOR0,. + 0
 486              		.type	analyzerGame, %object
 487              		.size	analyzerGame, 24
 488              	analyzerGame:
 489 0000 00000000 		.space	24
 489      00000000 
 489      00000000 
 489      00000000 
 489      00000000 
 490              		.type	ra_g_rndWait_ms, %object
 491              		.size	ra_g_rndWait_ms, 2
 492              	ra_g_rndWait_ms:
 493 0018 0000     		.space	2
 494              		.type	ra_g_reactionTimeout_ms, %object
 495              		.size	ra_g_reactionTimeout_ms, 2
 496              	ra_g_reactionTimeout_ms:
 497 001a 0000     		.space	2
 498              		.type	l_correctPress.8399, %object
 499              		.size	l_correctPress.8399, 1
 500              	l_correctPress.8399:
 501 001c 00       		.space	1
 502              		.type	ra_g_tftScore, %object
 503              		.size	ra_g_tftScore, 1
 504              	ra_g_tftScore:
 505 001d 00       		.space	1
 506              		.text
 507              	.Letext0:
 508              		.file 2 "c:\\h_da softwares & projects\\psoc creator\\4.4\\psoc creator\\import\\gnu\\arm\\5.4.1\\
 509              		.file 3 "c:\\h_da softwares & projects\\psoc creator\\4.4\\psoc creator\\import\\gnu\\arm\\5.4.1\\
 510              		.file 4 "Generated_Source\\PSoC5/ErikaOS_common_ee_types.inc"
 511              		.file 5 "Generated_Source\\PSoC5/ErikaOS_cortex_mx_ee_cpu.inc"
 512              		.file 6 "Generated_Source\\PSoC5/ErikaOS_ee_oo_common.inc"
 513              		.file 7 ".\\source\\bsw/global.h"
 514              		.file 8 "source\\asw\\ReactionGame.h"
 515              		.file 9 "source\\asw\\TimingAnalyzer.h"
ARM GAS  C:\Users\agila\AppData\Local\Temp\cc2L0h3t.s 			page 15


 516              		.file 10 "Generated_Source\\PSoC5/ErikaOS_ee_oo_intfunc.inc"
 517              		.file 11 "Generated_Source\\PSoC5/ErikaOS_cortex_mx_ee_context.inc"
 518              		.file 12 "Generated_Source\\PSoC5/ErikaOS_common_ee_primitives.inc"
 519              		.file 13 "Generated_Source\\PSoC5/core_cm3.h"
 520              		.file 14 "Generated_Source\\PSoC5/UART_LOG.h"
 521              		.file 15 "c:\\h_da softwares & projects\\psoc creator\\4.4\\psoc creator\\import\\gnu\\arm\\5.4.1\
 522              		.file 16 "Generated_Source\\PSoC5/ErikaOS_ee_oo_kernel.inc"
 523              		.file 17 "c:\\h_da softwares & projects\\psoc creator\\4.4\\psoc creator\\import\\gnu\\arm\\5.4.1\
 524              		.file 18 ".\\source\\bsw\\LabBoard/seven.h"
 525              		.file 19 "Generated_Source\\PSoC5/SEVEN_reg.h"