ARM GAS  C:\Users\agila\AppData\Local\Temp\ccuIRiBd.s 			page 1


   1              		.syntax unified
   2              		.cpu cortex-m3
   3              		.fpu softvfp
   4              		.eabi_attribute 20, 1
   5              		.eabi_attribute 21, 1
   6              		.eabi_attribute 23, 3
   7              		.eabi_attribute 24, 1
   8              		.eabi_attribute 25, 1
   9              		.eabi_attribute 26, 1
  10              		.eabi_attribute 30, 1
  11              		.eabi_attribute 34, 1
  12              		.eabi_attribute 18, 4
  13              		.thumb
  14              		.syntax unified
  15              		.file	"seven.c"
  16              		.text
  17              	.Ltext0:
  18              		.cfi_sections	.debug_frame
  19              		.section	.text.SEVEN_writeRandom,"ax",%progbits
  20              		.align	2
  21              		.global	SEVEN_writeRandom
  22              		.thumb
  23              		.thumb_func
  24              		.type	SEVEN_writeRandom, %function
  25              	SEVEN_writeRandom:
  26              	.LFB111:
  27              		.file 1 "source\\bsw\\LabBoard\\seven.c"
   1:source\bsw\LabBoard/seven.c **** /**
   2:source\bsw\LabBoard/seven.c **** * \file seven.c
   3:source\bsw\LabBoard/seven.c **** * \author P. Fromm
   4:source\bsw\LabBoard/seven.c **** * \date 28.8.17
   5:source\bsw\LabBoard/seven.c **** *
   6:source\bsw\LabBoard/seven.c **** * \brief Driver for 7 segment displays
   7:source\bsw\LabBoard/seven.c **** *
   8:source\bsw\LabBoard/seven.c **** * \copyright Copyright ©2016
   9:source\bsw\LabBoard/seven.c **** * Department of electrical engineering and information technology, Hochschule Darmstadt - Universit
  10:source\bsw\LabBoard/seven.c **** * Permission to use, copy, modify, and distribute this software and its documentation for education
  11:source\bsw\LabBoard/seven.c **** * (unless permitted by h_da) and official h_da projects, is hereby granted for enrolled students of
  12:source\bsw\LabBoard/seven.c **** * this paragraph and the following paragraph appear in all copies, modifications, and distributions
  13:source\bsw\LabBoard/seven.c **** * Contact Prof.Dr.-Ing. Peter Fromm, peter.fromm@h-da.de, Birkenweg 8 64295 Darmstadt - GERMANY for
  14:source\bsw\LabBoard/seven.c **** *
  15:source\bsw\LabBoard/seven.c **** * \warning This software is a PROTOTYPE version and is not designed or intended for use in producti
  16:source\bsw\LabBoard/seven.c **** * The user represents and warrants that it will NOT use or redistribute the Software for such purpo
  17:source\bsw\LabBoard/seven.c **** * This prototype is for research purposes only. This software is provided "AS IS," without a warran
  18:source\bsw\LabBoard/seven.c **** */
  19:source\bsw\LabBoard/seven.c **** 
  20:source\bsw\LabBoard/seven.c **** /*****************************************************************************/
  21:source\bsw\LabBoard/seven.c **** /* Include files                                                             */
  22:source\bsw\LabBoard/seven.c **** /*****************************************************************************/
  23:source\bsw\LabBoard/seven.c **** #include "project.h"
  24:source\bsw\LabBoard/seven.c **** #include "seven.h"
  25:source\bsw\LabBoard/seven.c **** #include<stdlib.h>
  26:source\bsw\LabBoard/seven.c **** 
  27:source\bsw\LabBoard/seven.c **** 
  28:source\bsw\LabBoard/seven.c **** 
  29:source\bsw\LabBoard/seven.c **** /*****************************************************************************/
  30:source\bsw\LabBoard/seven.c **** /* Local pre-processor symbols/macros ('#define')                            */
ARM GAS  C:\Users\agila\AppData\Local\Temp\ccuIRiBd.s 			page 2


  31:source\bsw\LabBoard/seven.c **** /*****************************************************************************/
  32:source\bsw\LabBoard/seven.c **** 
  33:source\bsw\LabBoard/seven.c **** #define SEVEN__A  0b10000000
  34:source\bsw\LabBoard/seven.c **** #define SEVEN__B  0b01000000
  35:source\bsw\LabBoard/seven.c **** #define SEVEN__C  0b00100000
  36:source\bsw\LabBoard/seven.c **** #define SEVEN__D  0b00010000
  37:source\bsw\LabBoard/seven.c **** #define SEVEN__E  0b00001000
  38:source\bsw\LabBoard/seven.c **** #define SEVEN__F  0b00000100
  39:source\bsw\LabBoard/seven.c **** #define SEVEN__G  0b00000010
  40:source\bsw\LabBoard/seven.c **** #define SEVEN__DP 0b00000001
  41:source\bsw\LabBoard/seven.c **** 
  42:source\bsw\LabBoard/seven.c **** 
  43:source\bsw\LabBoard/seven.c **** /*****************************************************************************/
  44:source\bsw\LabBoard/seven.c **** /* Global variable definitions (declared in header file with 'extern')       */
  45:source\bsw\LabBoard/seven.c **** /*****************************************************************************/
  46:source\bsw\LabBoard/seven.c **** 
  47:source\bsw\LabBoard/seven.c **** /*****************************************************************************/
  48:source\bsw\LabBoard/seven.c **** /* Local type definitions ('typedef')                                        */
  49:source\bsw\LabBoard/seven.c **** /*****************************************************************************/
  50:source\bsw\LabBoard/seven.c **** 
  51:source\bsw\LabBoard/seven.c **** /*****************************************************************************/
  52:source\bsw\LabBoard/seven.c **** /* Local variable definitions ('static')                                     */
  53:source\bsw\LabBoard/seven.c **** /*****************************************************************************/
  54:source\bsw\LabBoard/seven.c **** 
  55:source\bsw\LabBoard/seven.c **** //    ABCDEFG
  56:source\bsw\LabBoard/seven.c **** const static uint8_t SEVEN__BitPattern[] = 
  57:source\bsw\LabBoard/seven.c **** {
  58:source\bsw\LabBoard/seven.c ****     0b11111100,     //0
  59:source\bsw\LabBoard/seven.c ****     0b01100000,     //1
  60:source\bsw\LabBoard/seven.c ****     0b11011010,     //2
  61:source\bsw\LabBoard/seven.c ****     0b11110010,     //3
  62:source\bsw\LabBoard/seven.c ****     0b01100110,     //4
  63:source\bsw\LabBoard/seven.c ****     0b10110110,     //5
  64:source\bsw\LabBoard/seven.c ****     0b10111110,     //6
  65:source\bsw\LabBoard/seven.c ****     0b11100000,     //7
  66:source\bsw\LabBoard/seven.c ****     0b11111110,     //8
  67:source\bsw\LabBoard/seven.c ****     0b11110110,     //9
  68:source\bsw\LabBoard/seven.c ****     0b11101110,     //a
  69:source\bsw\LabBoard/seven.c ****     0b00111110,     //b
  70:source\bsw\LabBoard/seven.c ****     0b10011100,     //c
  71:source\bsw\LabBoard/seven.c ****     0b01111010,     //d
  72:source\bsw\LabBoard/seven.c ****     0b10011110,     //e
  73:source\bsw\LabBoard/seven.c ****     0b10001110,     //f
  74:source\bsw\LabBoard/seven.c ****     0b00000001      //decimal point
  75:source\bsw\LabBoard/seven.c **** };
  76:source\bsw\LabBoard/seven.c ****     
  77:source\bsw\LabBoard/seven.c **** //We need to store the last latch value per display
  78:source\bsw\LabBoard/seven.c **** //-1 means empty
  79:source\bsw\LabBoard/seven.c **** static sint8_t SEVEN__latch_value[2] = {-1,-1};
  80:source\bsw\LabBoard/seven.c **** static uint8_t SEVEN__latch_pattern[2] = {0,0};
  81:source\bsw\LabBoard/seven.c **** 
  82:source\bsw\LabBoard/seven.c **** /*****************************************************************************/
  83:source\bsw\LabBoard/seven.c **** /* Local function prototypes ('static')                                      */
  84:source\bsw\LabBoard/seven.c **** /*****************************************************************************/
  85:source\bsw\LabBoard/seven.c **** 
  86:source\bsw\LabBoard/seven.c **** 
  87:source\bsw\LabBoard/seven.c **** /*****************************************************************************/
ARM GAS  C:\Users\agila\AppData\Local\Temp\ccuIRiBd.s 			page 3


  88:source\bsw\LabBoard/seven.c **** /* Function implementation - global ('extern') and local ('static')          */
  89:source\bsw\LabBoard/seven.c **** /*****************************************************************************/
  90:source\bsw\LabBoard/seven.c **** 
  91:source\bsw\LabBoard/seven.c **** 
  92:source\bsw\LabBoard/seven.c **** 
  93:source\bsw\LabBoard/seven.c **** /**
  94:source\bsw\LabBoard/seven.c ****  * Initilasation of the seven segment display
  95:source\bsw\LabBoard/seven.c ****  * @return RC_SUCCESS if function was executed correctly, other value in case of error
  96:source\bsw\LabBoard/seven.c ****  */
  97:source\bsw\LabBoard/seven.c **** RC_t SEVEN_Init()
  98:source\bsw\LabBoard/seven.c **** {
  99:source\bsw\LabBoard/seven.c ****     
 100:source\bsw\LabBoard/seven.c ****     SEVEN_Clear(SEVEN_0);
 101:source\bsw\LabBoard/seven.c ****     SEVEN_Clear(SEVEN_1);
 102:source\bsw\LabBoard/seven.c ****     
 103:source\bsw\LabBoard/seven.c ****     return RC_SUCCESS;
 104:source\bsw\LabBoard/seven.c **** }
 105:source\bsw\LabBoard/seven.c **** 
 106:source\bsw\LabBoard/seven.c **** /**
 107:source\bsw\LabBoard/seven.c ****  * Writes a random value (1 or 2) on both displays
 108:source\bsw\LabBoard/seven.c ****  * @return RC_SUCCESS if function was executed correctly, other value in case of error
 109:source\bsw\LabBoard/seven.c ****  */
 110:source\bsw\LabBoard/seven.c **** RC_t SEVEN_writeRandom() {  // keep here or in RG ???
  28              		.loc 1 110 0
  29              		.cfi_startproc
  30              		@ args = 0, pretend = 0, frame = 0
  31              		@ frame_needed = 0, uses_anonymous_args = 0
  32 0000 10B5     		push	{r4, lr}
  33              		.cfi_def_cfa_offset 8
  34              		.cfi_offset 4, -8
  35              		.cfi_offset 14, -4
 111:source\bsw\LabBoard/seven.c ****     uint8_t randomValue = (rand() % 2) + 1;  // Generate a random number 1 or 2  
  36              		.loc 1 111 0
  37 0002 FFF7FEFF 		bl	rand
  38              	.LVL0:
  39 0006 104B     		ldr	r3, .L7
  40 0008 1840     		ands	r0, r0, r3
  41 000a 03D5     		bpl	.L2
  42 000c 0138     		subs	r0, r0, #1
  43 000e 60F00100 		orn	r0, r0, #1
  44 0012 0130     		adds	r0, r0, #1
  45              	.L2:
  46 0014 0130     		adds	r0, r0, #1
  47 0016 C0B2     		uxtb	r0, r0
  48              	.LVL1:
 112:source\bsw\LabBoard/seven.c ****     uint8_t data = 0b10000000;
 113:source\bsw\LabBoard/seven.c ****     if(randomValue == 1)
  49              		.loc 1 113 0
  50 0018 0128     		cmp	r0, #1
  51 001a 03D0     		beq	.L4
 114:source\bsw\LabBoard/seven.c ****      data = 0b00000110;
 115:source\bsw\LabBoard/seven.c ****     else if(randomValue == 2)
  52              		.loc 1 115 0
  53 001c 0228     		cmp	r0, #2
  54 001e 03D0     		beq	.L5
 112:source\bsw\LabBoard/seven.c ****     uint8_t data = 0b10000000;
  55              		.loc 1 112 0
ARM GAS  C:\Users\agila\AppData\Local\Temp\ccuIRiBd.s 			page 4


  56 0020 8024     		movs	r4, #128
  57 0022 02E0     		b	.L3
  58              	.L4:
 114:source\bsw\LabBoard/seven.c ****      data = 0b00000110;
  59              		.loc 1 114 0
  60 0024 0624     		movs	r4, #6
  61 0026 00E0     		b	.L3
  62              	.L5:
 116:source\bsw\LabBoard/seven.c ****      data = 0b01011011;
  63              		.loc 1 116 0
  64 0028 5B24     		movs	r4, #91
  65              	.L3:
  66              	.LVL2:
 117:source\bsw\LabBoard/seven.c **** 
 118:source\bsw\LabBoard/seven.c ****     // Set both displays to the same random value
 119:source\bsw\LabBoard/seven.c ****     SEVEN_SELECT_Write(0);  // Select right display
  67              		.loc 1 119 0
  68 002a 0020     		movs	r0, #0
  69              	.LVL3:
  70 002c FFF7FEFF 		bl	SEVEN_SELECT_Write
  71              	.LVL4:
 120:source\bsw\LabBoard/seven.c ****     SEVEN_reg_Write(data);
  72              		.loc 1 120 0
  73 0030 2046     		mov	r0, r4
  74 0032 FFF7FEFF 		bl	SEVEN_reg_Write
  75              	.LVL5:
 121:source\bsw\LabBoard/seven.c **** 
 122:source\bsw\LabBoard/seven.c ****     SEVEN_SELECT_Write(1);  // Select left display
  76              		.loc 1 122 0
  77 0036 0120     		movs	r0, #1
  78 0038 FFF7FEFF 		bl	SEVEN_SELECT_Write
  79              	.LVL6:
 123:source\bsw\LabBoard/seven.c ****     SEVEN_reg_Write(data);
  80              		.loc 1 123 0
  81 003c 2046     		mov	r0, r4
  82 003e FFF7FEFF 		bl	SEVEN_reg_Write
  83              	.LVL7:
 124:source\bsw\LabBoard/seven.c **** 
 125:source\bsw\LabBoard/seven.c ****     return RC_SUCCESS;
 126:source\bsw\LabBoard/seven.c **** }
  84              		.loc 1 126 0
  85 0042 0020     		movs	r0, #0
  86 0044 10BD     		pop	{r4, pc}
  87              	.LVL8:
  88              	.L8:
  89 0046 00BF     		.align	2
  90              	.L7:
  91 0048 01000080 		.word	-2147483647
  92              		.cfi_endproc
  93              	.LFE111:
  94              		.size	SEVEN_writeRandom, .-SEVEN_writeRandom
  95              		.section	.text.SEVEN_Set,"ax",%progbits
  96              		.align	2
  97              		.global	SEVEN_Set
  98              		.thumb
  99              		.thumb_func
 100              		.type	SEVEN_Set, %function
ARM GAS  C:\Users\agila\AppData\Local\Temp\ccuIRiBd.s 			page 5


 101              	SEVEN_Set:
 102              	.LFB112:
 127:source\bsw\LabBoard/seven.c **** 
 128:source\bsw\LabBoard/seven.c **** /**
 129:source\bsw\LabBoard/seven.c ****  * Sets value for one display
 130:source\bsw\LabBoard/seven.c ****  * @param SEVEN_id_t sevenId - identifier for the segment to be set
 131:source\bsw\LabBoard/seven.c ****  * @param uint8_t value - value to be set, valid range 0...15
 132:source\bsw\LabBoard/seven.c ****  * @return RC_SUCCESS if function was executed correctly, other value in case of error
 133:source\bsw\LabBoard/seven.c ****  */
 134:source\bsw\LabBoard/seven.c **** RC_t SEVEN_Set(SEVEN_id_t sevenId, uint8_t value)
 135:source\bsw\LabBoard/seven.c **** {
 103              		.loc 1 135 0
 104              		.cfi_startproc
 105              		@ args = 0, pretend = 0, frame = 0
 106              		@ frame_needed = 0, uses_anonymous_args = 0
 107              	.LVL9:
 136:source\bsw\LabBoard/seven.c ****     if (value > 0x0F)
 108              		.loc 1 136 0
 109 0000 0F29     		cmp	r1, #15
 110 0002 0ED8     		bhi	.L11
 135:source\bsw\LabBoard/seven.c ****     if (value > 0x0F)
 111              		.loc 1 135 0
 112 0004 38B5     		push	{r3, r4, r5, lr}
 113              		.cfi_def_cfa_offset 16
 114              		.cfi_offset 3, -16
 115              		.cfi_offset 4, -12
 116              		.cfi_offset 5, -8
 117              		.cfi_offset 14, -4
 118 0006 0C46     		mov	r4, r1
 119 0008 0546     		mov	r5, r0
 137:source\bsw\LabBoard/seven.c ****     {
 138:source\bsw\LabBoard/seven.c ****         return RC_ERROR_BAD_PARAM;
 139:source\bsw\LabBoard/seven.c ****     }
 140:source\bsw\LabBoard/seven.c ****     
 141:source\bsw\LabBoard/seven.c ****     //Set the selection bit for the display
 142:source\bsw\LabBoard/seven.c ****     SEVEN_SELECT_Write((uint8_t)sevenId);
 120              		.loc 1 142 0
 121 000a FFF7FEFF 		bl	SEVEN_SELECT_Write
 122              	.LVL10:
 143:source\bsw\LabBoard/seven.c ****     
 144:source\bsw\LabBoard/seven.c ****     //Set the bitpattern
 145:source\bsw\LabBoard/seven.c ****     //As we do not have a single port, we have to do it bit by bit
 146:source\bsw\LabBoard/seven.c ****     
 147:source\bsw\LabBoard/seven.c ****     uint8_t pattern = SEVEN__BitPattern[value];
 123              		.loc 1 147 0
 124 000e 064B     		ldr	r3, .L14
 125 0010 185D     		ldrb	r0, [r3, r4]	@ zero_extendqisi2
 126              	.LVL11:
 148:source\bsw\LabBoard/seven.c ****     
 149:source\bsw\LabBoard/seven.c ****     //Store the current pattern in the software latch (needed for the DP function)
 150:source\bsw\LabBoard/seven.c ****     SEVEN__latch_value[(uint8_t)sevenId] = value;
 127              		.loc 1 150 0
 128 0012 064B     		ldr	r3, .L14+4
 129 0014 5C55     		strb	r4, [r3, r5]
 151:source\bsw\LabBoard/seven.c ****     SEVEN__latch_pattern[(uint8_t)sevenId] = pattern;
 130              		.loc 1 151 0
 131 0016 064B     		ldr	r3, .L14+8
ARM GAS  C:\Users\agila\AppData\Local\Temp\ccuIRiBd.s 			page 6


 132 0018 5855     		strb	r0, [r3, r5]
 152:source\bsw\LabBoard/seven.c ****     
 153:source\bsw\LabBoard/seven.c ****     SEVEN_reg_Write(pattern);
 133              		.loc 1 153 0
 134 001a FFF7FEFF 		bl	SEVEN_reg_Write
 135              	.LVL12:
 154:source\bsw\LabBoard/seven.c ****     return RC_SUCCESS;
 136              		.loc 1 154 0
 137 001e 0020     		movs	r0, #0
 138 0020 38BD     		pop	{r3, r4, r5, pc}
 139              	.LVL13:
 140              	.L11:
 141              		.cfi_def_cfa_offset 0
 142              		.cfi_restore 3
 143              		.cfi_restore 4
 144              		.cfi_restore 5
 145              		.cfi_restore 14
 138:source\bsw\LabBoard/seven.c ****     }
 146              		.loc 1 138 0
 147 0022 6FF01300 		mvn	r0, #19
 148              	.LVL14:
 149 0026 7047     		bx	lr
 150              	.L15:
 151              		.align	2
 152              	.L14:
 153 0028 00000000 		.word	.LANCHOR0
 154 002c 00000000 		.word	.LANCHOR1
 155 0030 00000000 		.word	.LANCHOR2
 156              		.cfi_endproc
 157              	.LFE112:
 158              		.size	SEVEN_Set, .-SEVEN_Set
 159              		.section	.text.SEVEN_Get,"ax",%progbits
 160              		.align	2
 161              		.global	SEVEN_Get
 162              		.thumb
 163              		.thumb_func
 164              		.type	SEVEN_Get, %function
 165              	SEVEN_Get:
 166              	.LFB113:
 155:source\bsw\LabBoard/seven.c ****     
 156:source\bsw\LabBoard/seven.c **** }
 157:source\bsw\LabBoard/seven.c **** 
 158:source\bsw\LabBoard/seven.c **** /**
 159:source\bsw\LabBoard/seven.c ****  * Get value for one display
 160:source\bsw\LabBoard/seven.c ****  * @param SEVEN_id_t sevenId - identifier for the segment to be set
 161:source\bsw\LabBoard/seven.c ****  * @param uint8_t value - current value, valid range 0...15
 162:source\bsw\LabBoard/seven.c ****  * @return RC_SUCCESS if function was executed correctly, other value in case of error
 163:source\bsw\LabBoard/seven.c ****  */
 164:source\bsw\LabBoard/seven.c **** RC_t SEVEN_Get(SEVEN_id_t sevenId, sint8_t* value)
 165:source\bsw\LabBoard/seven.c **** {
 167              		.loc 1 165 0
 168              		.cfi_startproc
 169              		@ args = 0, pretend = 0, frame = 0
 170              		@ frame_needed = 0, uses_anonymous_args = 0
 171              		@ link register save eliminated.
 172              	.LVL15:
 166:source\bsw\LabBoard/seven.c ****     *value = SEVEN__latch_value[(uint8_t)sevenId];
ARM GAS  C:\Users\agila\AppData\Local\Temp\ccuIRiBd.s 			page 7


 173              		.loc 1 166 0
 174 0000 024B     		ldr	r3, .L17
 175 0002 1B56     		ldrsb	r3, [r3, r0]
 176 0004 0B70     		strb	r3, [r1]
 167:source\bsw\LabBoard/seven.c ****     return RC_SUCCESS;
 168:source\bsw\LabBoard/seven.c **** }
 177              		.loc 1 168 0
 178 0006 0020     		movs	r0, #0
 179              	.LVL16:
 180 0008 7047     		bx	lr
 181              	.L18:
 182 000a 00BF     		.align	2
 183              	.L17:
 184 000c 00000000 		.word	.LANCHOR1
 185              		.cfi_endproc
 186              	.LFE113:
 187              		.size	SEVEN_Get, .-SEVEN_Get
 188              		.section	.text.SEVEN_SetHex,"ax",%progbits
 189              		.align	2
 190              		.global	SEVEN_SetHex
 191              		.thumb
 192              		.thumb_func
 193              		.type	SEVEN_SetHex, %function
 194              	SEVEN_SetHex:
 195              	.LFB114:
 169:source\bsw\LabBoard/seven.c **** 
 170:source\bsw\LabBoard/seven.c **** 
 171:source\bsw\LabBoard/seven.c **** /**
 172:source\bsw\LabBoard/seven.c ****  * Sets both displays
 173:source\bsw\LabBoard/seven.c ****  * @param uint8_t value - value to be set, valid range 0...255
 174:source\bsw\LabBoard/seven.c ****  * @return RC_SUCCESS if function was executed correctly, other value in case of error
 175:source\bsw\LabBoard/seven.c ****  */
 176:source\bsw\LabBoard/seven.c **** RC_t SEVEN_SetHex(uint8_t value)
 177:source\bsw\LabBoard/seven.c **** {
 196              		.loc 1 177 0
 197              		.cfi_startproc
 198              		@ args = 0, pretend = 0, frame = 0
 199              		@ frame_needed = 0, uses_anonymous_args = 0
 200              	.LVL17:
 201 0000 10B5     		push	{r4, lr}
 202              		.cfi_def_cfa_offset 8
 203              		.cfi_offset 4, -8
 204              		.cfi_offset 14, -4
 205 0002 0446     		mov	r4, r0
 178:source\bsw\LabBoard/seven.c ****     SEVEN_Set(SEVEN_1, value / 16);
 206              		.loc 1 178 0
 207 0004 0109     		lsrs	r1, r0, #4
 208 0006 0120     		movs	r0, #1
 209              	.LVL18:
 210 0008 FFF7FEFF 		bl	SEVEN_Set
 211              	.LVL19:
 179:source\bsw\LabBoard/seven.c ****     SEVEN_Set(SEVEN_0, value % 16);
 212              		.loc 1 179 0
 213 000c 04F00F01 		and	r1, r4, #15
 214 0010 0020     		movs	r0, #0
 215 0012 FFF7FEFF 		bl	SEVEN_Set
 216              	.LVL20:
ARM GAS  C:\Users\agila\AppData\Local\Temp\ccuIRiBd.s 			page 8


 180:source\bsw\LabBoard/seven.c ****     
 181:source\bsw\LabBoard/seven.c ****     return RC_SUCCESS;
 182:source\bsw\LabBoard/seven.c **** }
 217              		.loc 1 182 0
 218 0016 0020     		movs	r0, #0
 219 0018 10BD     		pop	{r4, pc}
 220              		.cfi_endproc
 221              	.LFE114:
 222              		.size	SEVEN_SetHex, .-SEVEN_SetHex
 223 001a 00BF     		.section	.text.SEVEN_SetDP,"ax",%progbits
 224              		.align	2
 225              		.global	SEVEN_SetDP
 226              		.thumb
 227              		.thumb_func
 228              		.type	SEVEN_SetDP, %function
 229              	SEVEN_SetDP:
 230              	.LFB115:
 183:source\bsw\LabBoard/seven.c **** 
 184:source\bsw\LabBoard/seven.c **** /**
 185:source\bsw\LabBoard/seven.c ****  * Sets decimal point for one display
 186:source\bsw\LabBoard/seven.c ****  * @param SEVEN_id_t sevenId - identifier for the segment to be set
 187:source\bsw\LabBoard/seven.c ****  * @param uint8_t value - value to be set, valid range 0 (OFF)...1(ON)
 188:source\bsw\LabBoard/seven.c ****  * @return RC_SUCCESS if function was executed correctly, other value in case of error
 189:source\bsw\LabBoard/seven.c ****  */
 190:source\bsw\LabBoard/seven.c **** RC_t SEVEN_SetDP(SEVEN_id_t sevenId, uint8_t value)
 191:source\bsw\LabBoard/seven.c **** {
 231              		.loc 1 191 0
 232              		.cfi_startproc
 233              		@ args = 0, pretend = 0, frame = 0
 234              		@ frame_needed = 0, uses_anonymous_args = 0
 235              	.LVL21:
 192:source\bsw\LabBoard/seven.c ****     
 193:source\bsw\LabBoard/seven.c ****     if (value > 1)
 236              		.loc 1 193 0
 237 0000 0129     		cmp	r1, #1
 238 0002 14D8     		bhi	.L24
 191:source\bsw\LabBoard/seven.c ****     
 239              		.loc 1 191 0
 240 0004 38B5     		push	{r3, r4, r5, lr}
 241              		.cfi_def_cfa_offset 16
 242              		.cfi_offset 3, -16
 243              		.cfi_offset 4, -12
 244              		.cfi_offset 5, -8
 245              		.cfi_offset 14, -4
 246              	.LVL22:
 194:source\bsw\LabBoard/seven.c ****     {
 195:source\bsw\LabBoard/seven.c ****         return RC_ERROR_BAD_PARAM;
 196:source\bsw\LabBoard/seven.c ****     }
 197:source\bsw\LabBoard/seven.c ****     
 198:source\bsw\LabBoard/seven.c ****     //Restore the last display pattern
 199:source\bsw\LabBoard/seven.c ****     uint8_t pattern = 0;
 200:source\bsw\LabBoard/seven.c ****     if (SEVEN__latch_value[(uint8_t)sevenId] != -1)
 247              		.loc 1 200 0
 248 0006 0B4B     		ldr	r3, .L28
 249 0008 1B56     		ldrsb	r3, [r3, r0]
 250 000a B3F1FF3F 		cmp	r3, #-1
 251 000e 02D0     		beq	.L25
ARM GAS  C:\Users\agila\AppData\Local\Temp\ccuIRiBd.s 			page 9


 201:source\bsw\LabBoard/seven.c ****     {
 202:source\bsw\LabBoard/seven.c ****         pattern = SEVEN__latch_pattern[(uint8_t)sevenId];
 252              		.loc 1 202 0
 253 0010 094B     		ldr	r3, .L28+4
 254 0012 1D5C     		ldrb	r5, [r3, r0]	@ zero_extendqisi2
 255              	.LVL23:
 256 0014 00E0     		b	.L23
 257              	.LVL24:
 258              	.L25:
 199:source\bsw\LabBoard/seven.c ****     if (SEVEN__latch_value[(uint8_t)sevenId] != -1)
 259              		.loc 1 199 0
 260 0016 0025     		movs	r5, #0
 261              	.LVL25:
 262              	.L23:
 263 0018 0C46     		mov	r4, r1
 264              	.LVL26:
 203:source\bsw\LabBoard/seven.c ****     }
 204:source\bsw\LabBoard/seven.c ****     
 205:source\bsw\LabBoard/seven.c ****     //Set the selection bit for the display
 206:source\bsw\LabBoard/seven.c ****     SEVEN_SELECT_Write((uint8_t)sevenId);
 265              		.loc 1 206 0
 266 001a FFF7FEFF 		bl	SEVEN_SELECT_Write
 267              	.LVL27:
 207:source\bsw\LabBoard/seven.c ****     
 208:source\bsw\LabBoard/seven.c ****     //Set the port to the pattern currently active
 209:source\bsw\LabBoard/seven.c ****     SEVEN_reg_Write(pattern);
 268              		.loc 1 209 0
 269 001e 2846     		mov	r0, r5
 270 0020 FFF7FEFF 		bl	SEVEN_reg_Write
 271              	.LVL28:
 210:source\bsw\LabBoard/seven.c ****     
 211:source\bsw\LabBoard/seven.c ****     //Set the decimal point
 212:source\bsw\LabBoard/seven.c ****     SEVEN_DP_Write(value);
 272              		.loc 1 212 0
 273 0024 2046     		mov	r0, r4
 274 0026 FFF7FEFF 		bl	SEVEN_DP_Write
 275              	.LVL29:
 213:source\bsw\LabBoard/seven.c **** 
 214:source\bsw\LabBoard/seven.c ****     return RC_SUCCESS;
 276              		.loc 1 214 0
 277 002a 0020     		movs	r0, #0
 278 002c 38BD     		pop	{r3, r4, r5, pc}
 279              	.LVL30:
 280              	.L24:
 281              		.cfi_def_cfa_offset 0
 282              		.cfi_restore 3
 283              		.cfi_restore 4
 284              		.cfi_restore 5
 285              		.cfi_restore 14
 195:source\bsw\LabBoard/seven.c ****     }
 286              		.loc 1 195 0
 287 002e 6FF01300 		mvn	r0, #19
 288              	.LVL31:
 289 0032 7047     		bx	lr
 290              	.L29:
 291              		.align	2
 292              	.L28:
ARM GAS  C:\Users\agila\AppData\Local\Temp\ccuIRiBd.s 			page 10


 293 0034 00000000 		.word	.LANCHOR1
 294 0038 00000000 		.word	.LANCHOR2
 295              		.cfi_endproc
 296              	.LFE115:
 297              		.size	SEVEN_SetDP, .-SEVEN_SetDP
 298              		.section	.text.SEVEN_Clear,"ax",%progbits
 299              		.align	2
 300              		.global	SEVEN_Clear
 301              		.thumb
 302              		.thumb_func
 303              		.type	SEVEN_Clear, %function
 304              	SEVEN_Clear:
 305              	.LFB116:
 215:source\bsw\LabBoard/seven.c **** }
 216:source\bsw\LabBoard/seven.c **** 
 217:source\bsw\LabBoard/seven.c **** /**
 218:source\bsw\LabBoard/seven.c ****  * Clears one display
 219:source\bsw\LabBoard/seven.c ****  * @param SEVEN_id_t sevenId - identifier for the segment to be set
 220:source\bsw\LabBoard/seven.c ****  * @return RC_SUCCESS if function was executed correctly, other value in case of error
 221:source\bsw\LabBoard/seven.c ****  */
 222:source\bsw\LabBoard/seven.c **** RC_t SEVEN_Clear(SEVEN_id_t sevenId)
 223:source\bsw\LabBoard/seven.c **** {
 306              		.loc 1 223 0
 307              		.cfi_startproc
 308              		@ args = 0, pretend = 0, frame = 0
 309              		@ frame_needed = 0, uses_anonymous_args = 0
 310              	.LVL32:
 311 0000 08B5     		push	{r3, lr}
 312              		.cfi_def_cfa_offset 8
 313              		.cfi_offset 3, -8
 314              		.cfi_offset 14, -4
 224:source\bsw\LabBoard/seven.c ****     //Set software latch to cleared
 225:source\bsw\LabBoard/seven.c ****     SEVEN__latch_value[(uint8_t)sevenId] = -1;
 315              		.loc 1 225 0
 316 0002 FF22     		movs	r2, #255
 317 0004 044B     		ldr	r3, .L32
 318 0006 1A54     		strb	r2, [r3, r0]
 226:source\bsw\LabBoard/seven.c ****     
 227:source\bsw\LabBoard/seven.c ****     //Set the selection bit for the display
 228:source\bsw\LabBoard/seven.c ****     SEVEN_SELECT_Write((uint8_t)sevenId);
 319              		.loc 1 228 0
 320 0008 FFF7FEFF 		bl	SEVEN_SELECT_Write
 321              	.LVL33:
 229:source\bsw\LabBoard/seven.c ****     
 230:source\bsw\LabBoard/seven.c ****     //Clear every bit
 231:source\bsw\LabBoard/seven.c ****     SEVEN_reg_Write(0);
 322              		.loc 1 231 0
 323 000c 0020     		movs	r0, #0
 324 000e FFF7FEFF 		bl	SEVEN_reg_Write
 325              	.LVL34:
 232:source\bsw\LabBoard/seven.c ****     
 233:source\bsw\LabBoard/seven.c ****     return RC_SUCCESS;
 234:source\bsw\LabBoard/seven.c **** }
 326              		.loc 1 234 0
 327 0012 0020     		movs	r0, #0
 328 0014 08BD     		pop	{r3, pc}
 329              	.L33:
ARM GAS  C:\Users\agila\AppData\Local\Temp\ccuIRiBd.s 			page 11


 330 0016 00BF     		.align	2
 331              	.L32:
 332 0018 00000000 		.word	.LANCHOR1
 333              		.cfi_endproc
 334              	.LFE116:
 335              		.size	SEVEN_Clear, .-SEVEN_Clear
 336              		.section	.text.SEVEN_Init,"ax",%progbits
 337              		.align	2
 338              		.global	SEVEN_Init
 339              		.thumb
 340              		.thumb_func
 341              		.type	SEVEN_Init, %function
 342              	SEVEN_Init:
 343              	.LFB110:
  98:source\bsw\LabBoard/seven.c ****     
 344              		.loc 1 98 0
 345              		.cfi_startproc
 346              		@ args = 0, pretend = 0, frame = 0
 347              		@ frame_needed = 0, uses_anonymous_args = 0
 348 0000 08B5     		push	{r3, lr}
 349              		.cfi_def_cfa_offset 8
 350              		.cfi_offset 3, -8
 351              		.cfi_offset 14, -4
 100:source\bsw\LabBoard/seven.c ****     SEVEN_Clear(SEVEN_1);
 352              		.loc 1 100 0
 353 0002 0020     		movs	r0, #0
 354 0004 FFF7FEFF 		bl	SEVEN_Clear
 355              	.LVL35:
 101:source\bsw\LabBoard/seven.c ****     
 356              		.loc 1 101 0
 357 0008 0120     		movs	r0, #1
 358 000a FFF7FEFF 		bl	SEVEN_Clear
 359              	.LVL36:
 104:source\bsw\LabBoard/seven.c **** 
 360              		.loc 1 104 0
 361 000e 0020     		movs	r0, #0
 362 0010 08BD     		pop	{r3, pc}
 363              		.cfi_endproc
 364              	.LFE110:
 365              		.size	SEVEN_Init, .-SEVEN_Init
 366 0012 00BF     		.section	.text.SEVEN_ClearAll,"ax",%progbits
 367              		.align	2
 368              		.global	SEVEN_ClearAll
 369              		.thumb
 370              		.thumb_func
 371              		.type	SEVEN_ClearAll, %function
 372              	SEVEN_ClearAll:
 373              	.LFB117:
 235:source\bsw\LabBoard/seven.c **** 
 236:source\bsw\LabBoard/seven.c **** /**
 237:source\bsw\LabBoard/seven.c ****  * Clears both displays
 238:source\bsw\LabBoard/seven.c ****  * @return RC_SUCCESS if function was executed correctly, other value in case of error
 239:source\bsw\LabBoard/seven.c ****  */
 240:source\bsw\LabBoard/seven.c **** RC_t SEVEN_ClearAll()
 241:source\bsw\LabBoard/seven.c **** {
 374              		.loc 1 241 0
 375              		.cfi_startproc
ARM GAS  C:\Users\agila\AppData\Local\Temp\ccuIRiBd.s 			page 12


 376              		@ args = 0, pretend = 0, frame = 0
 377              		@ frame_needed = 0, uses_anonymous_args = 0
 378 0000 08B5     		push	{r3, lr}
 379              		.cfi_def_cfa_offset 8
 380              		.cfi_offset 3, -8
 381              		.cfi_offset 14, -4
 242:source\bsw\LabBoard/seven.c ****     //Set software latch to cleared
 243:source\bsw\LabBoard/seven.c ****     SEVEN__latch_value[0] = -1;
 382              		.loc 1 243 0
 383 0002 094B     		ldr	r3, .L38
 384 0004 FF22     		movs	r2, #255
 385 0006 1A70     		strb	r2, [r3]
 244:source\bsw\LabBoard/seven.c ****     SEVEN__latch_value[1] = -1;
 386              		.loc 1 244 0
 387 0008 5A70     		strb	r2, [r3, #1]
 245:source\bsw\LabBoard/seven.c ****     
 246:source\bsw\LabBoard/seven.c ****     //Set the selection bit for the right display
 247:source\bsw\LabBoard/seven.c ****     SEVEN_SELECT_Write(0);
 388              		.loc 1 247 0
 389 000a 0020     		movs	r0, #0
 390 000c FFF7FEFF 		bl	SEVEN_SELECT_Write
 391              	.LVL37:
 248:source\bsw\LabBoard/seven.c ****     //Clear every bit
 249:source\bsw\LabBoard/seven.c ****     SEVEN_reg_Write(0);
 392              		.loc 1 249 0
 393 0010 0020     		movs	r0, #0
 394 0012 FFF7FEFF 		bl	SEVEN_reg_Write
 395              	.LVL38:
 250:source\bsw\LabBoard/seven.c **** 
 251:source\bsw\LabBoard/seven.c ****     //Set the selection bit for the left display
 252:source\bsw\LabBoard/seven.c ****     SEVEN_SELECT_Write(1);
 396              		.loc 1 252 0
 397 0016 0120     		movs	r0, #1
 398 0018 FFF7FEFF 		bl	SEVEN_SELECT_Write
 399              	.LVL39:
 253:source\bsw\LabBoard/seven.c ****     SEVEN_reg_Write(0);
 400              		.loc 1 253 0
 401 001c 0020     		movs	r0, #0
 402 001e FFF7FEFF 		bl	SEVEN_reg_Write
 403              	.LVL40:
 254:source\bsw\LabBoard/seven.c ****     
 255:source\bsw\LabBoard/seven.c ****     return RC_SUCCESS;
 256:source\bsw\LabBoard/seven.c **** }...
 404              		.loc 1 256 0
 405 0022 0020     		movs	r0, #0
 406 0024 08BD     		pop	{r3, pc}
 407              	.L39:
 408 0026 00BF     		.align	2
 409              	.L38:
 410 0028 00000000 		.word	.LANCHOR1
 411              		.cfi_endproc
 412              	.LFE117:
 413              		.size	SEVEN_ClearAll, .-SEVEN_ClearAll
 414              		.section	.rodata
 415              		.align	2
 416              		.set	.LANCHOR0,. + 0
 417              		.type	SEVEN__BitPattern, %object
ARM GAS  C:\Users\agila\AppData\Local\Temp\ccuIRiBd.s 			page 13


 418              		.size	SEVEN__BitPattern, 17
 419              	SEVEN__BitPattern:
 420 0000 FC       		.byte	-4
 421 0001 60       		.byte	96
 422 0002 DA       		.byte	-38
 423 0003 F2       		.byte	-14
 424 0004 66       		.byte	102
 425 0005 B6       		.byte	-74
 426 0006 BE       		.byte	-66
 427 0007 E0       		.byte	-32
 428 0008 FE       		.byte	-2
 429 0009 F6       		.byte	-10
 430 000a EE       		.byte	-18
 431 000b 3E       		.byte	62
 432 000c 9C       		.byte	-100
 433 000d 7A       		.byte	122
 434 000e 9E       		.byte	-98
 435 000f 8E       		.byte	-114
 436 0010 01       		.byte	1
 437              		.data
 438              		.align	2
 439              		.set	.LANCHOR1,. + 0
 440              		.type	SEVEN__latch_value, %object
 441              		.size	SEVEN__latch_value, 2
 442              	SEVEN__latch_value:
 443 0000 FF       		.byte	-1
 444 0001 FF       		.byte	-1
 445              		.bss
 446              		.align	2
 447              		.set	.LANCHOR2,. + 0
 448              		.type	SEVEN__latch_pattern, %object
 449              		.size	SEVEN__latch_pattern, 2
 450              	SEVEN__latch_pattern:
 451 0000 0000     		.space	2
 452              		.text
 453              	.Letext0:
 454              		.file 2 "c:\\h_da softwares & projects\\psoc creator\\4.4\\psoc creator\\import\\gnu\\arm\\5.4.1\\
 455              		.file 3 "c:\\h_da softwares & projects\\psoc creator\\4.4\\psoc creator\\import\\gnu\\arm\\5.4.1\\
 456              		.file 4 "Generated_Source\\PSoC5/ErikaOS_common_ee_types.inc"
 457              		.file 5 "Generated_Source\\PSoC5/ErikaOS_cortex_mx_ee_cpu.inc"
 458              		.file 6 ".\\source\\bsw/global.h"
 459              		.file 7 "source\\bsw\\LabBoard\\seven.h"
 460              		.file 8 "Generated_Source\\PSoC5/ErikaOS_ee_oo_intfunc.inc"
 461              		.file 9 "Generated_Source\\PSoC5/ErikaOS_cortex_mx_ee_context.inc"
 462              		.file 10 "Generated_Source\\PSoC5/ErikaOS_common_ee_primitives.inc"
 463              		.file 11 "Generated_Source\\PSoC5/core_cm3.h"
 464              		.file 12 "c:\\h_da softwares & projects\\psoc creator\\4.4\\psoc creator\\import\\gnu\\arm\\5.4.1\
 465              		.file 13 "Generated_Source\\PSoC5/SEVEN_SELECT.h"
 466              		.file 14 "Generated_Source\\PSoC5/SEVEN_reg.h"
 467              		.file 15 "Generated_Source\\PSoC5/SEVEN_DP.h"