ARM GAS  C:\Users\agila\AppData\Local\Temp\ccXL9Txd.s 			page 1


   1              		.syntax unified
   2              		.cpu cortex-m3
   3              		.fpu softvfp
   4              		.eabi_attribute 20, 1
   5              		.eabi_attribute 21, 1
   6              		.eabi_attribute 23, 3
   7              		.eabi_attribute 24, 1
   8              		.eabi_attribute 25, 1
   9              		.eabi_attribute 26, 1
  10              		.eabi_attribute 30, 1
  11              		.eabi_attribute 34, 1
  12              		.eabi_attribute 18, 4
  13              		.thumb
  14              		.syntax unified
  15              		.file	"TimingAnalyzer.c"
  16              		.text
  17              	.Ltext0:
  18              		.cfi_sections	.debug_frame
  19              		.section	.text.TA_init,"ax",%progbits
  20              		.align	2
  21              		.global	TA_init
  22              		.thumb
  23              		.thumb_func
  24              		.type	TA_init, %function
  25              	TA_init:
  26              	.LFB111:
  27              		.file 1 "source\\asw\\TimingAnalyzer.c"
   1:source\asw/TimingAnalyzer.c **** /**
   2:source\asw/TimingAnalyzer.c **** * \file <CAnalyzer.c>
   3:source\asw/TimingAnalyzer.c **** * \author <AGILAN V S>
   4:source\asw/TimingAnalyzer.c **** * \date <22-10-2025>
   5:source\asw/TimingAnalyzer.c **** *
   6:source\asw/TimingAnalyzer.c **** * \brief <Symbolic File name>   // ???
   7:source\asw/TimingAnalyzer.c **** *
   8:source\asw/TimingAnalyzer.c **** * \copyright Copyright ©2016
   9:source\asw/TimingAnalyzer.c **** * Department of electrical engineering and information technology, Hochschule Darmstadt - Universit
  10:source\asw/TimingAnalyzer.c **** * Permission to use, copy, modify, and distribute this software and its documentation for education
  11:source\asw/TimingAnalyzer.c **** * (unless permitted by h_da) and official h_da projects, is hereby granted for enrolled students of
  12:source\asw/TimingAnalyzer.c **** * this paragraph and the following paragraph appear in all copies, modifications, and distributions
  13:source\asw/TimingAnalyzer.c **** * Contact Prof.Dr.-Ing. Peter Fromm, peter.fromm@h-da.de, Birkenweg 8 64295 Darmstadt - GERMANY for
  14:source\asw/TimingAnalyzer.c **** *
  15:source\asw/TimingAnalyzer.c **** * \warning This software is a PROTOTYPE version and is not designed or intended for use in producti
  16:source\asw/TimingAnalyzer.c **** * The user represents and warrants that it will NOT use or redistribute the Software for such purpo
  17:source\asw/TimingAnalyzer.c **** * This prototype is for research purposes only. This software is provided "AS IS," without a warran
  18:source\asw/TimingAnalyzer.c **** */
  19:source\asw/TimingAnalyzer.c **** 
  20:source\asw/TimingAnalyzer.c **** /*****************************************************************************/
  21:source\asw/TimingAnalyzer.c **** /* Include files                                                             */
  22:source\asw/TimingAnalyzer.c **** /*****************************************************************************/
  23:source\asw/TimingAnalyzer.c **** #include <stdio.h>
  24:source\asw/TimingAnalyzer.c **** #include <string.h>
  25:source\asw/TimingAnalyzer.c **** #include "project.h"
  26:source\asw/TimingAnalyzer.c **** #include "TimingAnalyzer.h"
  27:source\asw/TimingAnalyzer.c **** #include "pins.h"
  28:source\asw/TimingAnalyzer.c **** #include "UART_LOG.h"
  29:source\asw/TimingAnalyzer.c **** 
  30:source\asw/TimingAnalyzer.c **** /*****************************************************************************/
ARM GAS  C:\Users\agila\AppData\Local\Temp\ccXL9Txd.s 			page 2


  31:source\asw/TimingAnalyzer.c **** /* Local pre-processor symbols/macros ('#define')                            */
  32:source\asw/TimingAnalyzer.c **** /*****************************************************************************/ 
  33:source\asw/TimingAnalyzer.c **** // MISRA Rule 12.1/12.2 : Avoid magic numbers. Use symbolic constants. (We replaced all numeric lit
  34:source\asw/TimingAnalyzer.c **** // MISRA Rule 8.12 (2004) : Use #define or const for magic numbers. (Fully compliant (uses macros))
  35:source\asw/TimingAnalyzer.c **** // MISRA Rule 10.3 : Implicit conversions should be avoided. (All constants use explicit suffix UL 
  36:source\asw/TimingAnalyzer.c **** #define TA_MAX_ANALYZERS           (10UL)
  37:source\asw/TimingAnalyzer.c **** #define TA_MAX_PINS                (3UL)
  38:source\asw/TimingAnalyzer.c **** #define TA_MAX_MODES               (5UL)
  39:source\asw/TimingAnalyzer.c **** #define TA_SYSTICK_RELOAD_VALUE    ((BCLK__BUS_CLK__HZ / 1000UL) - 1UL)
  40:source\asw/TimingAnalyzer.c **** #define TA_SYSTICK_RESET_VALUE     (0UL)
  41:source\asw/TimingAnalyzer.c **** #define TA_DWT_RESET_VALUE         (0UL)
  42:source\asw/TimingAnalyzer.c **** #define TA_MAX_32BIT_VALUE         (4294967295UL)   /* 0xFFFFFFFFUL */
  43:source\asw/TimingAnalyzer.c **** #define TA_COUNTER_INCREMENT       (1UL)
  44:source\asw/TimingAnalyzer.c **** #define TA_SCALE_FACTOR            (1000000UL) /* 10^6 for 6 decimal places */
  45:source\asw/TimingAnalyzer.c **** 
  46:source\asw/TimingAnalyzer.c **** /*****************************************************************************/
  47:source\asw/TimingAnalyzer.c **** /* Global variable definitions (declared in header file with 'extern')       */
  48:source\asw/TimingAnalyzer.c **** /*****************************************************************************/
  49:source\asw/TimingAnalyzer.c **** 
  50:source\asw/TimingAnalyzer.c **** /*****************************************************************************/
  51:source\asw/TimingAnalyzer.c **** /* Local type definitions ('typedef')                                        */
  52:source\asw/TimingAnalyzer.c **** /*****************************************************************************/
  53:source\asw/TimingAnalyzer.c **** 
  54:source\asw/TimingAnalyzer.c **** /*****************************************************************************/
  55:source\asw/TimingAnalyzer.c **** /* Local variable definitions ('static')                                     */
  56:source\asw/TimingAnalyzer.c **** /*****************************************************************************/
  57:source\asw/TimingAnalyzer.c **** static TA_t* ta_g_analyzers[TA_MAX_ANALYZERS];    //  (N5)
  58:source\asw/TimingAnalyzer.c **** static uint8_t ta_g_analyzer_count = 0U;
  59:source\asw/TimingAnalyzer.c **** volatile static uint32_t ta_g_system_ms = 0UL; // Global millisecond counter
  60:source\asw/TimingAnalyzer.c **** 
  61:source\asw/TimingAnalyzer.c **** /*****************************************************************************/
  62:source\asw/TimingAnalyzer.c **** /* Local function prototypes ('static')                                      */
  63:source\asw/TimingAnalyzer.c **** /*****************************************************************************/
  64:source\asw/TimingAnalyzer.c **** 
  65:source\asw/TimingAnalyzer.c **** /*****************************************************************************/
  66:source\asw/TimingAnalyzer.c **** /* Function implementation - global ('extern') and local ('static')          */
  67:source\asw/TimingAnalyzer.c **** /*****************************************************************************/
  68:source\asw/TimingAnalyzer.c **** 
  69:source\asw/TimingAnalyzer.c **** /**
  70:source\asw/TimingAnalyzer.c ****  * Func to initialize of the necessary peripherals like Set up SysTick timer (1 ms), enable DWT cou
  71:source\asw/TimingAnalyzer.c ****  * \param None
  72:source\asw/TimingAnalyzer.c ****  * \return RC_SUCCESS when success and RC_ERROR_INVALID_STATE when Hardware not properly initilized
  73:source\asw/TimingAnalyzer.c **** */
  74:source\asw/TimingAnalyzer.c **** RC_t TA_init(void)
  75:source\asw/TimingAnalyzer.c **** {
  28              		.loc 1 75 0
  29              		.cfi_startproc
  30              		@ args = 0, pretend = 0, frame = 0
  31              		@ frame_needed = 0, uses_anonymous_args = 0
  32 0000 10B5     		push	{r4, lr}
  33              		.cfi_def_cfa_offset 8
  34              		.cfi_offset 4, -8
  35              		.cfi_offset 14, -4
  36              	.LVL0:
  76:source\asw/TimingAnalyzer.c ****     RC_t res = RC_SUCCESS;
  77:source\asw/TimingAnalyzer.c ****     
  78:source\asw/TimingAnalyzer.c ****     // Initialize SysTick timer (1 ms) // Causing issues with OS's cnt_systick
ARM GAS  C:\Users\agila\AppData\Local\Temp\ccXL9Txd.s 			page 3


  79:source\asw/TimingAnalyzer.c ****     /*CySysTickInit();									// Activate Systick counter     // (N7)
  80:source\asw/TimingAnalyzer.c **** 	CySysTickSetCallback(0, SysTick_Handler);           // Set ISR for Systick
  81:source\asw/TimingAnalyzer.c **** 	CySysTickSetReload(BCLK__BUS_CLK__HZ / 1000 - 1);   // Set 1ms cycle Time
  82:source\asw/TimingAnalyzer.c **** 	CySysTickEnable();									// Enable the Callback of the systick*/
  83:source\asw/TimingAnalyzer.c **** 
  84:source\asw/TimingAnalyzer.c ****     ta_g_system_ms = 0;      // Reset the global time counter
  37              		.loc 1 84 0
  38 0002 0024     		movs	r4, #0
  39 0004 084B     		ldr	r3, .L3
  40 0006 1C60     		str	r4, [r3]
  85:source\asw/TimingAnalyzer.c ****     
  86:source\asw/TimingAnalyzer.c ****     // Enable DWT Cycle Counter                                                                 // 
  87:source\asw/TimingAnalyzer.c ****     CoreDebug->DEMCR    |= CoreDebug_DEMCR_TRCENA_Msk;     // Activate the trace unit
  41              		.loc 1 87 0
  42 0008 084A     		ldr	r2, .L3+4
  43 000a D368     		ldr	r3, [r2, #12]
  44 000c 43F08073 		orr	r3, r3, #16777216
  45 0010 D360     		str	r3, [r2, #12]
  88:source\asw/TimingAnalyzer.c ****     DWT->CYCCNT          = TA_DWT_RESET_VALUE;             // Resets the cycle counter          // 
  46              		.loc 1 88 0
  47 0012 074B     		ldr	r3, .L3+8
  48 0014 5C60     		str	r4, [r3, #4]
  89:source\asw/TimingAnalyzer.c ****     DWT->CTRL           |= DWT_CTRL_CYCCNTENA_Msk;         // Starts the DWT counter running    // 
  49              		.loc 1 89 0
  50 0016 1A68     		ldr	r2, [r3]
  51 0018 42F00102 		orr	r2, r2, #1
  52 001c 1A60     		str	r2, [r3]
  90:source\asw/TimingAnalyzer.c **** 
  91:source\asw/TimingAnalyzer.c ****     // Set the pins low initially
  92:source\asw/TimingAnalyzer.c ****     Pins_Init();
  53              		.loc 1 92 0
  54 001e FFF7FEFF 		bl	Pins_Init
  55              	.LVL1:
  93:source\asw/TimingAnalyzer.c ****     
  94:source\asw/TimingAnalyzer.c ****     return res;
  95:source\asw/TimingAnalyzer.c **** }
  56              		.loc 1 95 0
  57 0022 2046     		mov	r0, r4
  58 0024 10BD     		pop	{r4, pc}
  59              	.L4:
  60 0026 00BF     		.align	2
  61              	.L3:
  62 0028 00000000 		.word	.LANCHOR0
  63 002c F0ED00E0 		.word	-536810000
  64 0030 001000E0 		.word	-536866816
  65              		.cfi_endproc
  66              	.LFE111:
  67              		.size	TA_init, .-TA_init
  68              		.section	.text.TA_create,"ax",%progbits
  69              		.align	2
  70              		.global	TA_create
  71              		.thumb
  72              		.thumb_func
  73              		.type	TA_create, %function
  74              	TA_create:
  75              	.LFB112:
  96:source\asw/TimingAnalyzer.c **** 
ARM GAS  C:\Users\agila\AppData\Local\Temp\ccXL9Txd.s 			page 4


  97:source\asw/TimingAnalyzer.c **** /**
  98:source\asw/TimingAnalyzer.c ****  * Func to initializes an analyzer struct with configuration and assign function pointers for pin c
  99:source\asw/TimingAnalyzer.c ****  * \param TA_t *const me                : [IN/OUT] struct of Analyzer related parameters
 100:source\asw/TimingAnalyzer.c ****  * \param TA_Mode_t const mode          : [IN] type of the configuration mode we need to run the an
 101:source\asw/TimingAnalyzer.c ****  * \param TA_PinFunc_t const pin_ctrl   : [IN] func pointer to control a GPIO pin
 102:source\asw/TimingAnalyzer.c ****  * \param const char const *name        : [IN] name of the Analyzer
 103:source\asw/TimingAnalyzer.c ****  * \return RC_SUCCESS when success, RC_ERROR_NULL when a pointer param is null
 104:source\asw/TimingAnalyzer.c ****  *         RC_ERROR_BAD_PARAM when unexpected params are passed and 
 105:source\asw/TimingAnalyzer.c ****  *         RC_ERROR_BUFFER_FULL when max analyzer count is reached
 106:source\asw/TimingAnalyzer.c **** */
 107:source\asw/TimingAnalyzer.c **** RC_t TA_create(TA_t *const me, TA_Mode_t const mode, TA_PinFunc_t const pin_ctrl, const char* const
 108:source\asw/TimingAnalyzer.c **** {
  76              		.loc 1 108 0
  77              		.cfi_startproc
  78              		@ args = 0, pretend = 0, frame = 0
  79              		@ frame_needed = 0, uses_anonymous_args = 0
  80              		@ link register save eliminated.
  81              	.LVL2:
 109:source\asw/TimingAnalyzer.c ****     RC_t res = RC_SUCCESS;
 110:source\asw/TimingAnalyzer.c ****     
 111:source\asw/TimingAnalyzer.c ****     // Validate the input
 112:source\asw/TimingAnalyzer.c ****     if (me == NULL_PTR || name == NULL_PTR) // warning Nullprt == me? All comparisions - datatypes 
  82              		.loc 1 112 0
  83 0000 20B3     		cbz	r0, .L11
 108:source\asw/TimingAnalyzer.c ****     RC_t res = RC_SUCCESS;
  84              		.loc 1 108 0 discriminator 1
  85 0002 70B4     		push	{r4, r5, r6}
  86              		.cfi_def_cfa_offset 12
  87              		.cfi_offset 4, -12
  88              		.cfi_offset 5, -8
  89              		.cfi_offset 6, -4
  90 0004 0446     		mov	r4, r0
  91              		.loc 1 112 0 discriminator 1
  92 0006 23B3     		cbz	r3, .L12
 113:source\asw/TimingAnalyzer.c ****     {
 114:source\asw/TimingAnalyzer.c ****         return RC_ERROR_NULL ;              // Can we compare a conatant value with the desired val
 115:source\asw/TimingAnalyzer.c ****     }
 116:source\asw/TimingAnalyzer.c ****     
 117:source\asw/TimingAnalyzer.c ****     if ((TA_MODE_DWT_PIN == mode || TA_MODE_SYSTICK_PIN == mode || TA_MODE_PIN == mode) && (pin_ctr
  93              		.loc 1 117 0
  94 0008 0129     		cmp	r1, #1
  95 000a 03D0     		beq	.L7
  96              		.loc 1 117 0 is_stmt 0 discriminator 2
  97 000c 0329     		cmp	r1, #3
  98 000e 01D0     		beq	.L7
  99              		.loc 1 117 0 discriminator 4
 100 0010 0429     		cmp	r1, #4
 101 0012 00D1     		bne	.L8
 102              	.L7:
 103              		.loc 1 117 0 discriminator 5
 104 0014 02B3     		cbz	r2, .L13
 105              	.L8:
 118:source\asw/TimingAnalyzer.c ****     {
 119:source\asw/TimingAnalyzer.c ****         return RC_ERROR_NULL;
 120:source\asw/TimingAnalyzer.c ****     }
 121:source\asw/TimingAnalyzer.c ****     
 122:source\asw/TimingAnalyzer.c ****     if (strlen(name) == 0UL || mode > TA_MAX_MODES)
ARM GAS  C:\Users\agila\AppData\Local\Temp\ccXL9Txd.s 			page 5


 106              		.loc 1 122 0 is_stmt 1
 107 0016 1878     		ldrb	r0, [r3]	@ zero_extendqisi2
 108              	.LVL3:
 109 0018 08B3     		cbz	r0, .L14
 110              		.loc 1 122 0 is_stmt 0 discriminator 1
 111 001a 0529     		cmp	r1, #5
 112 001c 22D8     		bhi	.L15
 123:source\asw/TimingAnalyzer.c ****     {
 124:source\asw/TimingAnalyzer.c ****         return RC_ERROR_BAD_PARAM;
 125:source\asw/TimingAnalyzer.c ****     }
 126:source\asw/TimingAnalyzer.c ****     
 127:source\asw/TimingAnalyzer.c ****     if ((TA_MODE_DWT == mode || TA_MODE_SYSTICK == mode) && (pin_ctrl == NULL_PTR)) 
 113              		.loc 1 127 0 is_stmt 1
 114 001e 09B1     		cbz	r1, .L9
 115              		.loc 1 127 0 is_stmt 0 discriminator 2
 116 0020 0229     		cmp	r1, #2
 117 0022 00D1     		bne	.L10
 118              	.L9:
 119              		.loc 1 127 0 discriminator 3
 120 0024 0AB3     		cbz	r2, .L16
 121              	.L10:
 128:source\asw/TimingAnalyzer.c ****     {
 129:source\asw/TimingAnalyzer.c ****         return RC_ERROR_BAD_PARAM;
 130:source\asw/TimingAnalyzer.c ****     }
 131:source\asw/TimingAnalyzer.c ****     
 132:source\asw/TimingAnalyzer.c ****     if(ta_g_analyzer_count >= TA_MAX_ANALYZERS)
 122              		.loc 1 132 0 is_stmt 1
 123 0026 1448     		ldr	r0, .L19
 124 0028 0579     		ldrb	r5, [r0, #4]	@ zero_extendqisi2
 125 002a 092D     		cmp	r5, #9
 126 002c 20D8     		bhi	.L17
 133:source\asw/TimingAnalyzer.c ****     {
 134:source\asw/TimingAnalyzer.c ****         res = RC_ERROR_BUFFER_FULL;
 135:source\asw/TimingAnalyzer.c ****     }
 136:source\asw/TimingAnalyzer.c ****     
 137:source\asw/TimingAnalyzer.c ****     // Add to global analyzer list
 138:source\asw/TimingAnalyzer.c ****     else
 139:source\asw/TimingAnalyzer.c ****     {
 140:source\asw/TimingAnalyzer.c ****         ta_g_analyzers[ta_g_analyzer_count++] = me;
 127              		.loc 1 140 0
 128 002e 6E1C     		adds	r6, r5, #1
 129 0030 0671     		strb	r6, [r0, #4]
 130 0032 00EB8500 		add	r0, r0, r5, lsl #2
 131 0036 8460     		str	r4, [r0, #8]
 141:source\asw/TimingAnalyzer.c ****     
 142:source\asw/TimingAnalyzer.c ****         // Clear the entire struct first
 143:source\asw/TimingAnalyzer.c ****         memset(me, 0, sizeof(TA_t));
 132              		.loc 1 143 0
 133 0038 0020     		movs	r0, #0
 134 003a 6060     		str	r0, [r4, #4]	@ unaligned
 144:source\asw/TimingAnalyzer.c ****     
 145:source\asw/TimingAnalyzer.c ****         // Storing the info
 146:source\asw/TimingAnalyzer.c ****         me->mode    = mode;
 135              		.loc 1 146 0
 136 003c 2171     		strb	r1, [r4, #4]
 147:source\asw/TimingAnalyzer.c ****         me->state   = TA_STATE_IDLE;
 137              		.loc 1 147 0
ARM GAS  C:\Users\agila\AppData\Local\Temp\ccXL9Txd.s 			page 6


 138 003e 6071     		strb	r0, [r4, #5]
 148:source\asw/TimingAnalyzer.c ****         me->name    = name;
 139              		.loc 1 148 0
 140 0040 2360     		str	r3, [r4]
 149:source\asw/TimingAnalyzer.c ****     
 150:source\asw/TimingAnalyzer.c ****         // Initialize the timing fields
 151:source\asw/TimingAnalyzer.c ****         me->start_time      = 0UL;
 141              		.loc 1 151 0
 142 0042 A060     		str	r0, [r4, #8]
 152:source\asw/TimingAnalyzer.c ****         me->stop_time       = 0UL;
 143              		.loc 1 152 0
 144 0044 E060     		str	r0, [r4, #12]
 153:source\asw/TimingAnalyzer.c ****         me->elapsed_time    = 0UL;
 145              		.loc 1 153 0
 146 0046 2061     		str	r0, [r4, #16]
 154:source\asw/TimingAnalyzer.c ****         
 155:source\asw/TimingAnalyzer.c ****         // Assign pin control function pointers
 156:source\asw/TimingAnalyzer.c ****         me->pin_control_func = pin_ctrl;
 147              		.loc 1 156 0
 148 0048 6261     		str	r2, [r4, #20]
 149 004a 13E0     		b	.L6
 150              	.LVL4:
 151              	.L11:
 152              		.cfi_def_cfa_offset 0
 153              		.cfi_restore 4
 154              		.cfi_restore 5
 155              		.cfi_restore 6
 114:source\asw/TimingAnalyzer.c ****     }
 156              		.loc 1 114 0
 157 004c 6FF00100 		mvn	r0, #1
 158              	.LVL5:
 157:source\asw/TimingAnalyzer.c ****     }
 158:source\asw/TimingAnalyzer.c ****     return res;
 159:source\asw/TimingAnalyzer.c **** }
 159              		.loc 1 159 0
 160 0050 7047     		bx	lr
 161              	.LVL6:
 162              	.L12:
 163              		.cfi_def_cfa_offset 12
 164              		.cfi_offset 4, -12
 165              		.cfi_offset 5, -8
 166              		.cfi_offset 6, -4
 114:source\asw/TimingAnalyzer.c ****     }
 167              		.loc 1 114 0
 168 0052 6FF00100 		mvn	r0, #1
 169              	.LVL7:
 170 0056 0DE0     		b	.L6
 171              	.LVL8:
 172              	.L13:
 119:source\asw/TimingAnalyzer.c ****     }
 173              		.loc 1 119 0
 174 0058 6FF00100 		mvn	r0, #1
 175              	.LVL9:
 176 005c 0AE0     		b	.L6
 177              	.L14:
 124:source\asw/TimingAnalyzer.c ****     }
 178              		.loc 1 124 0
ARM GAS  C:\Users\agila\AppData\Local\Temp\ccXL9Txd.s 			page 7


 179 005e 6FF01300 		mvn	r0, #19
 180 0062 07E0     		b	.L6
 181              	.L15:
 182 0064 6FF01300 		mvn	r0, #19
 183 0068 04E0     		b	.L6
 184              	.L16:
 129:source\asw/TimingAnalyzer.c ****     }
 185              		.loc 1 129 0
 186 006a 6FF01300 		mvn	r0, #19
 187 006e 01E0     		b	.L6
 188              	.L17:
 134:source\asw/TimingAnalyzer.c ****     }
 189              		.loc 1 134 0
 190 0070 6FF00700 		mvn	r0, #7
 191              	.L6:
 192              		.loc 1 159 0
 193 0074 70BC     		pop	{r4, r5, r6}
 194              		.cfi_restore 6
 195              		.cfi_restore 5
 196              		.cfi_restore 4
 197              		.cfi_def_cfa_offset 0
 198              	.LVL10:
 199 0076 7047     		bx	lr
 200              	.L20:
 201              		.align	2
 202              	.L19:
 203 0078 00000000 		.word	.LANCHOR0
 204              		.cfi_endproc
 205              	.LFE112:
 206              		.size	TA_create, .-TA_create
 207              		.section	.text.TA_start,"ax",%progbits
 208              		.align	2
 209              		.global	TA_start
 210              		.thumb
 211              		.thumb_func
 212              		.type	TA_start, %function
 213              	TA_start:
 214              	.LFB113:
 160:source\asw/TimingAnalyzer.c **** 
 161:source\asw/TimingAnalyzer.c **** /**
 162:source\asw/TimingAnalyzer.c ****  * Func to start counting using SysTick or DWT and set pin HIGH if configured.
 163:source\asw/TimingAnalyzer.c ****  * \param TA_t *const me            : [IN/OUT] struct of Analyzer related parameters
 164:source\asw/TimingAnalyzer.c ****  * \return RC_SUCCESS when success, RC_ERROR_NULL when the me pointer is null, 
 165:source\asw/TimingAnalyzer.c ****  *         RC_ERROR_INVALID_STATE when analyzer is not in any active state and/or when Hardware not
 166:source\asw/TimingAnalyzer.c ****  *         RC_ERROR_BUSY when an analyzer is already in running state
 167:source\asw/TimingAnalyzer.c **** */
 168:source\asw/TimingAnalyzer.c **** RC_t TA_start(TA_t *const me)
 169:source\asw/TimingAnalyzer.c **** {
 215              		.loc 1 169 0
 216              		.cfi_startproc
 217              		@ args = 0, pretend = 0, frame = 0
 218              		@ frame_needed = 0, uses_anonymous_args = 0
 219              	.LVL11:
 170:source\asw/TimingAnalyzer.c ****     RC_t res = RC_SUCCESS;
 171:source\asw/TimingAnalyzer.c ****     
 172:source\asw/TimingAnalyzer.c ****     // Validate the input
 173:source\asw/TimingAnalyzer.c ****     if (me == NULL_PTR)
ARM GAS  C:\Users\agila\AppData\Local\Temp\ccXL9Txd.s 			page 8


 220              		.loc 1 173 0
 221 0000 08B3     		cbz	r0, .L27
 169:source\asw/TimingAnalyzer.c ****     RC_t res = RC_SUCCESS;
 222              		.loc 1 169 0
 223 0002 10B5     		push	{r4, lr}
 224              		.cfi_def_cfa_offset 8
 225              		.cfi_offset 4, -8
 226              		.cfi_offset 14, -4
 227 0004 0446     		mov	r4, r0
 174:source\asw/TimingAnalyzer.c ****     {
 175:source\asw/TimingAnalyzer.c ****         return RC_ERROR_NULL;
 176:source\asw/TimingAnalyzer.c ****     }
 177:source\asw/TimingAnalyzer.c ****     
 178:source\asw/TimingAnalyzer.c ****     // Check state - If already running, invalid call
 179:source\asw/TimingAnalyzer.c ****     if (TA_STATE_RUNNING == me->state)
 228              		.loc 1 179 0
 229 0006 4379     		ldrb	r3, [r0, #5]	@ zero_extendqisi2
 230 0008 012B     		cmp	r3, #1
 231 000a 1FD0     		beq	.L28
 180:source\asw/TimingAnalyzer.c ****     {
 181:source\asw/TimingAnalyzer.c ****         return RC_ERROR_BUSY;
 182:source\asw/TimingAnalyzer.c ****     }
 183:source\asw/TimingAnalyzer.c ****     
 184:source\asw/TimingAnalyzer.c ****     // Handle pin output first for precision
 185:source\asw/TimingAnalyzer.c ****     if ((TA_MODE_SYSTICK_PIN == me->mode) || (TA_MODE_DWT_PIN  == me->mode) || (TA_MODE_PIN  == me-
 232              		.loc 1 185 0
 233 000c 0379     		ldrb	r3, [r0, #4]	@ zero_extendqisi2
 234 000e 032B     		cmp	r3, #3
 235 0010 03D0     		beq	.L23
 236              		.loc 1 185 0 is_stmt 0 discriminator 1
 237 0012 012B     		cmp	r3, #1
 238 0014 01D0     		beq	.L23
 239              		.loc 1 185 0 discriminator 2
 240 0016 042B     		cmp	r3, #4
 241 0018 03D1     		bne	.L24
 242              	.L23:
 186:source\asw/TimingAnalyzer.c ****     {
 187:source\asw/TimingAnalyzer.c ****         if (me->pin_control_func != NULL_PTR)
 243              		.loc 1 187 0 is_stmt 1
 244 001a 6369     		ldr	r3, [r4, #20]
 245 001c CBB1     		cbz	r3, .L29
 188:source\asw/TimingAnalyzer.c ****         {
 189:source\asw/TimingAnalyzer.c ****             me->pin_control_func(1U);   /* Turn ON pin */
 246              		.loc 1 189 0
 247 001e 0120     		movs	r0, #1
 248              	.LVL12:
 249 0020 9847     		blx	r3
 250              	.LVL13:
 251              	.L24:
 190:source\asw/TimingAnalyzer.c ****         } else {
 191:source\asw/TimingAnalyzer.c ****             return RC_ERROR_NULL;
 192:source\asw/TimingAnalyzer.c ****         }
 193:source\asw/TimingAnalyzer.c ****     }
 194:source\asw/TimingAnalyzer.c ****     
 195:source\asw/TimingAnalyzer.c ****     // Fetching the counter FIRST for precision
 196:source\asw/TimingAnalyzer.c ****     if (TA_MODE_SYSTICK == me->mode || TA_MODE_SYSTICK_PIN  == me->mode) {
 252              		.loc 1 196 0
ARM GAS  C:\Users\agila\AppData\Local\Temp\ccXL9Txd.s 			page 9


 253 0022 2279     		ldrb	r2, [r4, #4]	@ zero_extendqisi2
 254 0024 931E     		subs	r3, r2, #2
 255 0026 DBB2     		uxtb	r3, r3
 256 0028 012B     		cmp	r3, #1
 257 002a 03D8     		bhi	.L25
 197:source\asw/TimingAnalyzer.c ****         // SysTick counts in ms
 198:source\asw/TimingAnalyzer.c ****         me->start_time = ta_g_system_ms;  // Start a cycle interval
 258              		.loc 1 198 0
 259 002c 0A4B     		ldr	r3, .L31
 260 002e 1B68     		ldr	r3, [r3]
 261 0030 A360     		str	r3, [r4, #8]
 262 0032 04E0     		b	.L26
 263              	.L25:
 199:source\asw/TimingAnalyzer.c ****     } else if (TA_MODE_DWT  == me->mode || TA_MODE_DWT_PIN  == me->mode) {
 264              		.loc 1 199 0
 265 0034 012A     		cmp	r2, #1
 266 0036 02D8     		bhi	.L26
 200:source\asw/TimingAnalyzer.c ****         // DWT->CYCCNT = current CPU cycle count
 201:source\asw/TimingAnalyzer.c ****         me->start_time = DWT->CYCCNT;  // Start a cycle interval
 267              		.loc 1 201 0
 268 0038 084B     		ldr	r3, .L31+4
 269 003a 5B68     		ldr	r3, [r3, #4]
 270 003c A360     		str	r3, [r4, #8]
 271              	.L26:
 202:source\asw/TimingAnalyzer.c ****     } else {
 203:source\asw/TimingAnalyzer.c ****         // TA_MODE_PIN only - do nothing
 204:source\asw/TimingAnalyzer.c ****     }
 205:source\asw/TimingAnalyzer.c **** 
 206:source\asw/TimingAnalyzer.c ****     // Update state
 207:source\asw/TimingAnalyzer.c ****     me->state = TA_STATE_RUNNING;
 272              		.loc 1 207 0
 273 003e 0123     		movs	r3, #1
 274 0040 6371     		strb	r3, [r4, #5]
 208:source\asw/TimingAnalyzer.c ****     
 209:source\asw/TimingAnalyzer.c ****     return res;
 275              		.loc 1 209 0
 276 0042 0020     		movs	r0, #0
 277 0044 10BD     		pop	{r4, pc}
 278              	.LVL14:
 279              	.L27:
 280              		.cfi_def_cfa_offset 0
 281              		.cfi_restore 4
 282              		.cfi_restore 14
 175:source\asw/TimingAnalyzer.c ****     }
 283              		.loc 1 175 0
 284 0046 6FF00100 		mvn	r0, #1
 285              	.LVL15:
 210:source\asw/TimingAnalyzer.c **** }
 286              		.loc 1 210 0
 287 004a 7047     		bx	lr
 288              	.LVL16:
 289              	.L28:
 290              		.cfi_def_cfa_offset 8
 291              		.cfi_offset 4, -8
 292              		.cfi_offset 14, -4
 181:source\asw/TimingAnalyzer.c ****     }
 293              		.loc 1 181 0
ARM GAS  C:\Users\agila\AppData\Local\Temp\ccXL9Txd.s 			page 10


 294 004c 6FF00900 		mvn	r0, #9
 295              	.LVL17:
 296 0050 10BD     		pop	{r4, pc}
 297              	.LVL18:
 298              	.L29:
 191:source\asw/TimingAnalyzer.c ****         }
 299              		.loc 1 191 0
 300 0052 6FF00100 		mvn	r0, #1
 301              	.LVL19:
 302              		.loc 1 210 0
 303 0056 10BD     		pop	{r4, pc}
 304              	.LVL20:
 305              	.L32:
 306              		.align	2
 307              	.L31:
 308 0058 00000000 		.word	.LANCHOR0
 309 005c 001000E0 		.word	-536866816
 310              		.cfi_endproc
 311              	.LFE113:
 312              		.size	TA_start, .-TA_start
 313              		.section	.text.TA_resume,"ax",%progbits
 314              		.align	2
 315              		.global	TA_resume
 316              		.thumb
 317              		.thumb_func
 318              		.type	TA_resume, %function
 319              	TA_resume:
 320              	.LFB115:
 211:source\asw/TimingAnalyzer.c **** 
 212:source\asw/TimingAnalyzer.c **** /**
 213:source\asw/TimingAnalyzer.c ****  * Func to stop counting temporarily and add elapsed time since start to total time.
 214:source\asw/TimingAnalyzer.c ****  * \param TA_t *const me            : [IN/OUT] struct of Analyzer related parameters
 215:source\asw/TimingAnalyzer.c ****  * \return RC_SUCCESS when success, RC_ERROR_NULL when the me pointer is null and 
 216:source\asw/TimingAnalyzer.c ****  *         RC_ERROR_INVALID_STATE when analyzer is not in any active state and/or not running
 217:source\asw/TimingAnalyzer.c **** */
 218:source\asw/TimingAnalyzer.c **** RC_t TA_pause(TA_t *const me)
 219:source\asw/TimingAnalyzer.c **** {
 220:source\asw/TimingAnalyzer.c ****     RC_t res = RC_SUCCESS;
 221:source\asw/TimingAnalyzer.c ****     
 222:source\asw/TimingAnalyzer.c ****     // Validate the input
 223:source\asw/TimingAnalyzer.c ****     if (me == NULL_PTR)
 224:source\asw/TimingAnalyzer.c ****     {
 225:source\asw/TimingAnalyzer.c ****         return RC_ERROR_NULL;
 226:source\asw/TimingAnalyzer.c ****     }
 227:source\asw/TimingAnalyzer.c ****     
 228:source\asw/TimingAnalyzer.c ****     // Check state - Can only pause when running
 229:source\asw/TimingAnalyzer.c ****     if (TA_STATE_RUNNING != me->state)
 230:source\asw/TimingAnalyzer.c ****     {
 231:source\asw/TimingAnalyzer.c ****         return RC_ERROR_INVALID_STATE;
 232:source\asw/TimingAnalyzer.c ****     }
 233:source\asw/TimingAnalyzer.c ****     
 234:source\asw/TimingAnalyzer.c ****     // Fetching the counter FIRST for precision
 235:source\asw/TimingAnalyzer.c ****     if (TA_MODE_SYSTICK == me->mode || TA_MODE_SYSTICK_PIN == me->mode) {
 236:source\asw/TimingAnalyzer.c ****         // SysTick counts in ms
 237:source\asw/TimingAnalyzer.c ****         me->stop_time = ta_g_system_ms;  // Stop current cycle interval
 238:source\asw/TimingAnalyzer.c ****         
 239:source\asw/TimingAnalyzer.c ****     } else if (TA_MODE_DWT == me->mode || TA_MODE_DWT_PIN == me->mode) {
ARM GAS  C:\Users\agila\AppData\Local\Temp\ccXL9Txd.s 			page 11


 240:source\asw/TimingAnalyzer.c ****         // DWT cycle counter
 241:source\asw/TimingAnalyzer.c ****         me->stop_time = DWT->CYCCNT;  // Stop current cycle interval
 242:source\asw/TimingAnalyzer.c ****         
 243:source\asw/TimingAnalyzer.c ****     } else {
 244:source\asw/TimingAnalyzer.c ****         // TA_MODE_PIN only - do nothing
 245:source\asw/TimingAnalyzer.c ****     }
 246:source\asw/TimingAnalyzer.c ****     
 247:source\asw/TimingAnalyzer.c ****     res = TA_calculateElapsedTime(me);
 248:source\asw/TimingAnalyzer.c ****     
 249:source\asw/TimingAnalyzer.c ****     // Pin LOW to show pause
 250:source\asw/TimingAnalyzer.c ****     if ((TA_MODE_SYSTICK_PIN == me->mode) || (TA_MODE_DWT_PIN == me->mode) || (TA_MODE_PIN == me->m
 251:source\asw/TimingAnalyzer.c ****     {
 252:source\asw/TimingAnalyzer.c ****         if (me->pin_control_func != NULL_PTR)
 253:source\asw/TimingAnalyzer.c ****         {
 254:source\asw/TimingAnalyzer.c ****             me->pin_control_func(0U); /* Turn OFF pin */
 255:source\asw/TimingAnalyzer.c ****         } else {
 256:source\asw/TimingAnalyzer.c ****             return RC_ERROR_NULL;
 257:source\asw/TimingAnalyzer.c ****         }
 258:source\asw/TimingAnalyzer.c ****     }
 259:source\asw/TimingAnalyzer.c ****     
 260:source\asw/TimingAnalyzer.c ****     // Update state
 261:source\asw/TimingAnalyzer.c ****     me->state = TA_STATE_PAUSED;
 262:source\asw/TimingAnalyzer.c ****     
 263:source\asw/TimingAnalyzer.c ****     return res;
 264:source\asw/TimingAnalyzer.c **** }
 265:source\asw/TimingAnalyzer.c **** 
 266:source\asw/TimingAnalyzer.c **** /**
 267:source\asw/TimingAnalyzer.c ****  * Func to resume measurement from paused state.
 268:source\asw/TimingAnalyzer.c ****  * \param TA_t *const me            : [IN/OUT] struct of Analyzer related parameters
 269:source\asw/TimingAnalyzer.c ****  * \return RC_SUCCESS when success, RC_ERROR_NULL when the me pointer is null, 
 270:source\asw/TimingAnalyzer.c ****  *         RC_ERROR_INVALID_STATE when analyzer is not in any active state and/or not paused
 271:source\asw/TimingAnalyzer.c **** */
 272:source\asw/TimingAnalyzer.c **** RC_t TA_resume(TA_t *const me)
 273:source\asw/TimingAnalyzer.c **** {
 321              		.loc 1 273 0
 322              		.cfi_startproc
 323              		@ args = 0, pretend = 0, frame = 0
 324              		@ frame_needed = 0, uses_anonymous_args = 0
 325              	.LVL21:
 274:source\asw/TimingAnalyzer.c ****     RC_t res = RC_SUCCESS;
 275:source\asw/TimingAnalyzer.c ****     
 276:source\asw/TimingAnalyzer.c ****     // Validate the input
 277:source\asw/TimingAnalyzer.c ****     if (me == NULL_PTR)
 326              		.loc 1 277 0
 327 0000 08B3     		cbz	r0, .L39
 273:source\asw/TimingAnalyzer.c ****     RC_t res = RC_SUCCESS;
 328              		.loc 1 273 0
 329 0002 10B5     		push	{r4, lr}
 330              		.cfi_def_cfa_offset 8
 331              		.cfi_offset 4, -8
 332              		.cfi_offset 14, -4
 333 0004 0446     		mov	r4, r0
 278:source\asw/TimingAnalyzer.c ****     {
 279:source\asw/TimingAnalyzer.c ****         return RC_ERROR_NULL;
 280:source\asw/TimingAnalyzer.c ****     }
 281:source\asw/TimingAnalyzer.c ****     
 282:source\asw/TimingAnalyzer.c ****     // Check state - Can only resume if paused
ARM GAS  C:\Users\agila\AppData\Local\Temp\ccXL9Txd.s 			page 12


 283:source\asw/TimingAnalyzer.c ****     if (TA_STATE_PAUSED != me->state)
 334              		.loc 1 283 0
 335 0006 4379     		ldrb	r3, [r0, #5]	@ zero_extendqisi2
 336 0008 022B     		cmp	r3, #2
 337 000a 1FD1     		bne	.L40
 284:source\asw/TimingAnalyzer.c ****     {
 285:source\asw/TimingAnalyzer.c ****         return RC_ERROR_INVALID_STATE;
 286:source\asw/TimingAnalyzer.c ****     }
 287:source\asw/TimingAnalyzer.c ****     
 288:source\asw/TimingAnalyzer.c ****     // Pin HIGH to indicate resumed timing
 289:source\asw/TimingAnalyzer.c ****     if ((TA_MODE_SYSTICK_PIN == me->mode) || (TA_MODE_DWT_PIN == me->mode) || (TA_MODE_PIN == me->m
 338              		.loc 1 289 0
 339 000c 0379     		ldrb	r3, [r0, #4]	@ zero_extendqisi2
 340 000e 032B     		cmp	r3, #3
 341 0010 03D0     		beq	.L35
 342              		.loc 1 289 0 is_stmt 0 discriminator 1
 343 0012 012B     		cmp	r3, #1
 344 0014 01D0     		beq	.L35
 345              		.loc 1 289 0 discriminator 2
 346 0016 042B     		cmp	r3, #4
 347 0018 03D1     		bne	.L36
 348              	.L35:
 290:source\asw/TimingAnalyzer.c ****     {
 291:source\asw/TimingAnalyzer.c ****         if (me->pin_control_func != NULL_PTR)
 349              		.loc 1 291 0 is_stmt 1
 350 001a 6369     		ldr	r3, [r4, #20]
 351 001c CBB1     		cbz	r3, .L41
 292:source\asw/TimingAnalyzer.c ****         {
 293:source\asw/TimingAnalyzer.c ****            me->pin_control_func(1U);   /* Turn ON pin */
 352              		.loc 1 293 0
 353 001e 0120     		movs	r0, #1
 354              	.LVL22:
 355 0020 9847     		blx	r3
 356              	.LVL23:
 357              	.L36:
 294:source\asw/TimingAnalyzer.c ****         } else {
 295:source\asw/TimingAnalyzer.c ****             return RC_ERROR_NULL;
 296:source\asw/TimingAnalyzer.c ****         }
 297:source\asw/TimingAnalyzer.c ****     }
 298:source\asw/TimingAnalyzer.c ****     
 299:source\asw/TimingAnalyzer.c ****     // Fetching the counter FIRST for precision
 300:source\asw/TimingAnalyzer.c ****     if (TA_MODE_SYSTICK == me->mode || TA_MODE_SYSTICK_PIN == me->mode) {
 358              		.loc 1 300 0
 359 0022 2279     		ldrb	r2, [r4, #4]	@ zero_extendqisi2
 360 0024 931E     		subs	r3, r2, #2
 361 0026 DBB2     		uxtb	r3, r3
 362 0028 012B     		cmp	r3, #1
 363 002a 03D8     		bhi	.L37
 301:source\asw/TimingAnalyzer.c ****        // SysTick counts in ms
 302:source\asw/TimingAnalyzer.c ****         me->start_time = ta_g_system_ms;  // Start new cycle interval
 364              		.loc 1 302 0
 365 002c 0A4B     		ldr	r3, .L43
 366 002e 1B68     		ldr	r3, [r3]
 367 0030 A360     		str	r3, [r4, #8]
 368 0032 04E0     		b	.L38
 369              	.L37:
 303:source\asw/TimingAnalyzer.c ****     } else if (TA_MODE_DWT == me->mode || TA_MODE_DWT_PIN == me->mode) {
ARM GAS  C:\Users\agila\AppData\Local\Temp\ccXL9Txd.s 			page 13


 370              		.loc 1 303 0
 371 0034 012A     		cmp	r2, #1
 372 0036 02D8     		bhi	.L38
 304:source\asw/TimingAnalyzer.c ****         // DWT cycle counter
 305:source\asw/TimingAnalyzer.c ****         me->start_time = DWT->CYCCNT;  // Start new cycle interval
 373              		.loc 1 305 0
 374 0038 084B     		ldr	r3, .L43+4
 375 003a 5B68     		ldr	r3, [r3, #4]
 376 003c A360     		str	r3, [r4, #8]
 377              	.L38:
 306:source\asw/TimingAnalyzer.c ****     } else {      
 307:source\asw/TimingAnalyzer.c ****         // TA_MODE_PIN only - do nothing
 308:source\asw/TimingAnalyzer.c ****     }
 309:source\asw/TimingAnalyzer.c ****     
 310:source\asw/TimingAnalyzer.c ****     // Update state
 311:source\asw/TimingAnalyzer.c ****     me->state = TA_STATE_RUNNING;
 378              		.loc 1 311 0
 379 003e 0123     		movs	r3, #1
 380 0040 6371     		strb	r3, [r4, #5]
 312:source\asw/TimingAnalyzer.c ****     
 313:source\asw/TimingAnalyzer.c ****     return res;
 381              		.loc 1 313 0
 382 0042 0020     		movs	r0, #0
 383 0044 10BD     		pop	{r4, pc}
 384              	.LVL24:
 385              	.L39:
 386              		.cfi_def_cfa_offset 0
 387              		.cfi_restore 4
 388              		.cfi_restore 14
 279:source\asw/TimingAnalyzer.c ****     }
 389              		.loc 1 279 0
 390 0046 6FF00100 		mvn	r0, #1
 391              	.LVL25:
 314:source\asw/TimingAnalyzer.c **** }
 392              		.loc 1 314 0
 393 004a 7047     		bx	lr
 394              	.LVL26:
 395              	.L40:
 396              		.cfi_def_cfa_offset 8
 397              		.cfi_offset 4, -8
 398              		.cfi_offset 14, -4
 285:source\asw/TimingAnalyzer.c ****     }
 399              		.loc 1 285 0
 400 004c 6FF01600 		mvn	r0, #22
 401              	.LVL27:
 402 0050 10BD     		pop	{r4, pc}
 403              	.LVL28:
 404              	.L41:
 295:source\asw/TimingAnalyzer.c ****         }
 405              		.loc 1 295 0
 406 0052 6FF00100 		mvn	r0, #1
 407              	.LVL29:
 408              		.loc 1 314 0
 409 0056 10BD     		pop	{r4, pc}
 410              	.LVL30:
 411              	.L44:
 412              		.align	2
ARM GAS  C:\Users\agila\AppData\Local\Temp\ccXL9Txd.s 			page 14


 413              	.L43:
 414 0058 00000000 		.word	.LANCHOR0
 415 005c 001000E0 		.word	-536866816
 416              		.cfi_endproc
 417              	.LFE115:
 418              		.size	TA_resume, .-TA_resume
 419              		.section	.text.TA_delete,"ax",%progbits
 420              		.align	2
 421              		.global	TA_delete
 422              		.thumb
 423              		.thumb_func
 424              		.type	TA_delete, %function
 425              	TA_delete:
 426              	.LFB117:
 315:source\asw/TimingAnalyzer.c **** 
 316:source\asw/TimingAnalyzer.c **** /**
 317:source\asw/TimingAnalyzer.c ****  * Func to stop counting, calculate total time, and set pin LOW.
 318:source\asw/TimingAnalyzer.c ****  * \param TA_t *const me            : [IN/OUT] struct of Analyzer related parameters
 319:source\asw/TimingAnalyzer.c ****  * \return RC_SUCCESS when success, RC_ERROR_NULL when the me pointer is null and 
 320:source\asw/TimingAnalyzer.c ****  *         RC_ERROR_INVALID_STATE when analyzer is not in any active state and/or already stopped
 321:source\asw/TimingAnalyzer.c **** */
 322:source\asw/TimingAnalyzer.c **** RC_t TA_stop(TA_t *const me)
 323:source\asw/TimingAnalyzer.c **** {
 324:source\asw/TimingAnalyzer.c ****     RC_t res = RC_SUCCESS;
 325:source\asw/TimingAnalyzer.c ****     
 326:source\asw/TimingAnalyzer.c ****     // Validate the input
 327:source\asw/TimingAnalyzer.c ****     if (me == NULL_PTR)
 328:source\asw/TimingAnalyzer.c ****     {
 329:source\asw/TimingAnalyzer.c ****         return RC_ERROR_NULL;
 330:source\asw/TimingAnalyzer.c ****     }
 331:source\asw/TimingAnalyzer.c ****     
 332:source\asw/TimingAnalyzer.c ****     // Check state - Can only stop if running or paused
 333:source\asw/TimingAnalyzer.c ****     if (TA_STATE_RUNNING != me->state && TA_STATE_PAUSED != me->state) 
 334:source\asw/TimingAnalyzer.c ****     {
 335:source\asw/TimingAnalyzer.c ****         return RC_ERROR_INVALID_STATE;
 336:source\asw/TimingAnalyzer.c ****     }
 337:source\asw/TimingAnalyzer.c ****     
 338:source\asw/TimingAnalyzer.c ****     // Fetching the counter FIRST for precision
 339:source\asw/TimingAnalyzer.c ****     if (TA_MODE_SYSTICK == me->mode || TA_MODE_SYSTICK_PIN == me->mode) {
 340:source\asw/TimingAnalyzer.c ****         // SysTick counts in ms
 341:source\asw/TimingAnalyzer.c ****         me->stop_time = ta_g_system_ms;  // Stop the cycle interval        
 342:source\asw/TimingAnalyzer.c ****     } else if (TA_MODE_DWT == me->mode || TA_MODE_DWT_PIN == me->mode) {
 343:source\asw/TimingAnalyzer.c ****         // DWT cycle counter
 344:source\asw/TimingAnalyzer.c ****         me->stop_time = DWT->CYCCNT;  // Stop the cycle interval
 345:source\asw/TimingAnalyzer.c ****     } else {
 346:source\asw/TimingAnalyzer.c ****         // TA_MODE_PIN only - do nothing
 347:source\asw/TimingAnalyzer.c ****     }
 348:source\asw/TimingAnalyzer.c ****     
 349:source\asw/TimingAnalyzer.c ****     res = TA_calculateElapsedTime(me);
 350:source\asw/TimingAnalyzer.c ****     
 351:source\asw/TimingAnalyzer.c ****     // Clear pin after stopping
 352:source\asw/TimingAnalyzer.c ****     if ((TA_MODE_SYSTICK_PIN == me->mode) || (TA_MODE_DWT_PIN == me->mode) || (TA_MODE_PIN == me->m
 353:source\asw/TimingAnalyzer.c ****     {
 354:source\asw/TimingAnalyzer.c ****         if (me->pin_control_func != NULL_PTR)
 355:source\asw/TimingAnalyzer.c ****         {
 356:source\asw/TimingAnalyzer.c ****             me->pin_control_func(0U); /* Turn OFF pin */
 357:source\asw/TimingAnalyzer.c ****         } else {
ARM GAS  C:\Users\agila\AppData\Local\Temp\ccXL9Txd.s 			page 15


 358:source\asw/TimingAnalyzer.c ****             return RC_ERROR_NULL;
 359:source\asw/TimingAnalyzer.c ****         }
 360:source\asw/TimingAnalyzer.c ****     }
 361:source\asw/TimingAnalyzer.c ****     
 362:source\asw/TimingAnalyzer.c ****     // Update state
 363:source\asw/TimingAnalyzer.c ****     me->state = TA_STATE_STOPPED;
 364:source\asw/TimingAnalyzer.c ****     
 365:source\asw/TimingAnalyzer.c ****     return res;
 366:source\asw/TimingAnalyzer.c **** }
 367:source\asw/TimingAnalyzer.c **** 
 368:source\asw/TimingAnalyzer.c **** /**
 369:source\asw/TimingAnalyzer.c ****  * Func to delete a previously created analyzer. Removes it from the global list and resets its con
 370:source\asw/TimingAnalyzer.c ****  * \param TA_t *const me            : [IN] Analyzer instance to be deleted
 371:source\asw/TimingAnalyzer.c ****  * \return RC_SUCCESS when success,
 372:source\asw/TimingAnalyzer.c ****  *         RC_ERROR_NULL when pointer is NULL,
 373:source\asw/TimingAnalyzer.c ****  *         RC_ERROR_BAD_PARAM when analyzer not found
 374:source\asw/TimingAnalyzer.c ****  */
 375:source\asw/TimingAnalyzer.c **** RC_t TA_delete(TA_t *const me)
 376:source\asw/TimingAnalyzer.c **** {
 427              		.loc 1 376 0
 428              		.cfi_startproc
 429              		@ args = 0, pretend = 0, frame = 0
 430              		@ frame_needed = 0, uses_anonymous_args = 0
 431              		@ link register save eliminated.
 432              	.LVL31:
 377:source\asw/TimingAnalyzer.c ****     RC_t res = RC_SUCCESS;
 378:source\asw/TimingAnalyzer.c ****     
 379:source\asw/TimingAnalyzer.c ****     uint8_t index = 0U;
 380:source\asw/TimingAnalyzer.c ****     boolean_t found = FALSE;
 381:source\asw/TimingAnalyzer.c **** 
 382:source\asw/TimingAnalyzer.c ****     if (me == NULL_PTR)
 433              		.loc 1 382 0
 434 0000 78B3     		cbz	r0, .L52
 376:source\asw/TimingAnalyzer.c ****     RC_t res = RC_SUCCESS;
 435              		.loc 1 376 0
 436 0002 30B4     		push	{r4, r5}
 437              		.cfi_def_cfa_offset 8
 438              		.cfi_offset 4, -8
 439              		.cfi_offset 5, -4
 440 0004 0546     		mov	r5, r0
 441 0006 0023     		movs	r3, #0
 442 0008 07E0     		b	.L47
 443              	.LVL32:
 444              	.L49:
 383:source\asw/TimingAnalyzer.c ****     {
 384:source\asw/TimingAnalyzer.c ****         return RC_ERROR_NULL;
 385:source\asw/TimingAnalyzer.c ****     }
 386:source\asw/TimingAnalyzer.c **** 
 387:source\asw/TimingAnalyzer.c ****     // Search for analyzer in global list
 388:source\asw/TimingAnalyzer.c ****     for (index = 0U; index < ta_g_analyzer_count; index++)
 389:source\asw/TimingAnalyzer.c ****     {
 390:source\asw/TimingAnalyzer.c ****         if (ta_g_analyzers[index] == me)
 445              		.loc 1 390 0
 446 000a 194A     		ldr	r2, .L56
 447 000c 02EB8302 		add	r2, r2, r3, lsl #2
 448 0010 9268     		ldr	r2, [r2, #8]
 449 0012 9542     		cmp	r5, r2
ARM GAS  C:\Users\agila\AppData\Local\Temp\ccXL9Txd.s 			page 16


 450 0014 07D0     		beq	.L53
 388:source\asw/TimingAnalyzer.c ****     {
 451              		.loc 1 388 0 discriminator 2
 452 0016 0133     		adds	r3, r3, #1
 453              	.LVL33:
 454 0018 DBB2     		uxtb	r3, r3
 455              	.LVL34:
 456              	.L47:
 388:source\asw/TimingAnalyzer.c ****     {
 457              		.loc 1 388 0 is_stmt 0 discriminator 1
 458 001a 154A     		ldr	r2, .L56
 459 001c 1479     		ldrb	r4, [r2, #4]	@ zero_extendqisi2
 460 001e A342     		cmp	r3, r4
 461 0020 F3D3     		bcc	.L49
 380:source\asw/TimingAnalyzer.c **** 
 462              		.loc 1 380 0 is_stmt 1
 463 0022 0022     		movs	r2, #0
 464 0024 00E0     		b	.L48
 465              	.L53:
 391:source\asw/TimingAnalyzer.c ****         {
 392:source\asw/TimingAnalyzer.c ****             found = TRUE;
 466              		.loc 1 392 0
 467 0026 0122     		movs	r2, #1
 468              	.L48:
 469              	.LVL35:
 393:source\asw/TimingAnalyzer.c ****             break;
 394:source\asw/TimingAnalyzer.c ****         }
 395:source\asw/TimingAnalyzer.c ****     }
 396:source\asw/TimingAnalyzer.c **** 
 397:source\asw/TimingAnalyzer.c ****     if (found == FALSE)
 470              		.loc 1 397 0
 471 0028 52B9     		cbnz	r2, .L50
 472 002a 1DE0     		b	.L54
 473              	.LVL36:
 474              	.L51:
 475              	.LBB2:
 398:source\asw/TimingAnalyzer.c ****     {
 399:source\asw/TimingAnalyzer.c ****         return RC_ERROR_BAD_PARAM;   // Analyzer not found
 400:source\asw/TimingAnalyzer.c ****     }
 401:source\asw/TimingAnalyzer.c **** 
 402:source\asw/TimingAnalyzer.c ****     // Shift remaining analyzers left to keep array compact
 403:source\asw/TimingAnalyzer.c ****     for (uint8_t i = index; i < (ta_g_analyzer_count - 1U); i++)
 404:source\asw/TimingAnalyzer.c ****     {
 405:source\asw/TimingAnalyzer.c ****         ta_g_analyzers[i] = ta_g_analyzers[i + 1U];
 476              		.loc 1 405 0 discriminator 3
 477 002c 591C     		adds	r1, r3, #1
 478 002e 104A     		ldr	r2, .L56
 479 0030 02EB8101 		add	r1, r2, r1, lsl #2
 480 0034 8968     		ldr	r1, [r1, #8]
 481 0036 02EB8302 		add	r2, r2, r3, lsl #2
 482 003a 9160     		str	r1, [r2, #8]
 403:source\asw/TimingAnalyzer.c ****     {
 483              		.loc 1 403 0 discriminator 3
 484 003c 0133     		adds	r3, r3, #1
 485              	.LVL37:
 486 003e DBB2     		uxtb	r3, r3
 487              	.LVL38:
ARM GAS  C:\Users\agila\AppData\Local\Temp\ccXL9Txd.s 			page 17


 488              	.L50:
 403:source\asw/TimingAnalyzer.c ****     {
 489              		.loc 1 403 0 is_stmt 0 discriminator 1
 490 0040 621E     		subs	r2, r4, #1
 491 0042 9342     		cmp	r3, r2
 492 0044 F2D3     		bcc	.L51
 493              	.LBE2:
 406:source\asw/TimingAnalyzer.c ****     }
 407:source\asw/TimingAnalyzer.c **** 
 408:source\asw/TimingAnalyzer.c ****     ta_g_analyzers[ta_g_analyzer_count - 1U] = NULL_PTR;
 494              		.loc 1 408 0 is_stmt 1
 495 0046 0A4B     		ldr	r3, .L56
 496              	.LVL39:
 497 0048 03EB8202 		add	r2, r3, r2, lsl #2
 498 004c 0020     		movs	r0, #0
 499              	.LVL40:
 500 004e 9060     		str	r0, [r2, #8]
 409:source\asw/TimingAnalyzer.c ****     ta_g_analyzer_count--;
 501              		.loc 1 409 0
 502 0050 013C     		subs	r4, r4, #1
 503 0052 1C71     		strb	r4, [r3, #4]
 410:source\asw/TimingAnalyzer.c **** 
 411:source\asw/TimingAnalyzer.c ****     // Reset the analyzer object itself
 412:source\asw/TimingAnalyzer.c ****     memset(me, 0, sizeof(TA_t));
 504              		.loc 1 412 0
 505 0054 2860     		str	r0, [r5]	@ unaligned
 506 0056 6860     		str	r0, [r5, #4]	@ unaligned
 507 0058 A860     		str	r0, [r5, #8]	@ unaligned
 508 005a E860     		str	r0, [r5, #12]	@ unaligned
 509 005c 2861     		str	r0, [r5, #16]	@ unaligned
 510 005e 6861     		str	r0, [r5, #20]	@ unaligned
 413:source\asw/TimingAnalyzer.c **** 
 414:source\asw/TimingAnalyzer.c ****     return res;
 511              		.loc 1 414 0
 512 0060 04E0     		b	.L46
 513              	.LVL41:
 514              	.L52:
 515              		.cfi_def_cfa_offset 0
 516              		.cfi_restore 4
 517              		.cfi_restore 5
 384:source\asw/TimingAnalyzer.c ****     }
 518              		.loc 1 384 0
 519 0062 6FF00100 		mvn	r0, #1
 520              	.LVL42:
 415:source\asw/TimingAnalyzer.c **** }
 521              		.loc 1 415 0
 522 0066 7047     		bx	lr
 523              	.LVL43:
 524              	.L54:
 525              		.cfi_def_cfa_offset 8
 526              		.cfi_offset 4, -8
 527              		.cfi_offset 5, -4
 399:source\asw/TimingAnalyzer.c ****     }
 528              		.loc 1 399 0
 529 0068 6FF01300 		mvn	r0, #19
 530              	.LVL44:
 531              	.L46:
ARM GAS  C:\Users\agila\AppData\Local\Temp\ccXL9Txd.s 			page 18


 532              		.loc 1 415 0
 533 006c 30BC     		pop	{r4, r5}
 534              		.cfi_restore 5
 535              		.cfi_restore 4
 536              		.cfi_def_cfa_offset 0
 537              	.LVL45:
 538 006e 7047     		bx	lr
 539              	.L57:
 540              		.align	2
 541              	.L56:
 542 0070 00000000 		.word	.LANCHOR0
 543              		.cfi_endproc
 544              	.LFE117:
 545              		.size	TA_delete, .-TA_delete
 546              		.section	.text.TA_calculateElapsedTime,"ax",%progbits
 547              		.align	2
 548              		.global	TA_calculateElapsedTime
 549              		.thumb
 550              		.thumb_func
 551              		.type	TA_calculateElapsedTime, %function
 552              	TA_calculateElapsedTime:
 553              	.LFB118:
 416:source\asw/TimingAnalyzer.c **** 
 417:source\asw/TimingAnalyzer.c **** /**
 418:source\asw/TimingAnalyzer.c ****  * Func to calculate the elapsed ticks/cycles between start and stop time.
 419:source\asw/TimingAnalyzer.c ****  * \param TA_t *const me            : [IN/OUT] struct of Analyzer related parameters
 420:source\asw/TimingAnalyzer.c ****  * \return RC_SUCCESS when success
 421:source\asw/TimingAnalyzer.c **** */
 422:source\asw/TimingAnalyzer.c **** RC_t TA_calculateElapsedTime(TA_t *const me)
 423:source\asw/TimingAnalyzer.c **** {
 554              		.loc 1 423 0
 555              		.cfi_startproc
 556              		@ args = 0, pretend = 0, frame = 0
 557              		@ frame_needed = 0, uses_anonymous_args = 0
 558              		@ link register save eliminated.
 559              	.LVL46:
 424:source\asw/TimingAnalyzer.c ****     RC_t res = RC_SUCCESS;
 425:source\asw/TimingAnalyzer.c ****     
 426:source\asw/TimingAnalyzer.c ****     // Calculate the elapsed time
 427:source\asw/TimingAnalyzer.c ****     if (me->stop_time >= me->start_time)
 560              		.loc 1 427 0
 561 0000 C368     		ldr	r3, [r0, #12]
 562 0002 8268     		ldr	r2, [r0, #8]
 563 0004 9342     		cmp	r3, r2
 564 0006 04D3     		bcc	.L59
 428:source\asw/TimingAnalyzer.c ****     {
 429:source\asw/TimingAnalyzer.c ****         me->elapsed_time = me->elapsed_time + (me->stop_time - me->start_time);
 565              		.loc 1 429 0
 566 0008 0169     		ldr	r1, [r0, #16]
 567 000a 9B1A     		subs	r3, r3, r2
 568 000c 0B44     		add	r3, r3, r1
 569 000e 0361     		str	r3, [r0, #16]
 570 0010 03E0     		b	.L60
 571              	.L59:
 430:source\asw/TimingAnalyzer.c ****     } else {
 431:source\asw/TimingAnalyzer.c ****         /* Handle 32-bit wrap-around */
 432:source\asw/TimingAnalyzer.c ****         me->elapsed_time = me->elapsed_time + ((TA_MAX_32BIT_VALUE - me->start_time) + me->stop_tim
ARM GAS  C:\Users\agila\AppData\Local\Temp\ccXL9Txd.s 			page 19


 572              		.loc 1 432 0
 573 0012 0169     		ldr	r1, [r0, #16]
 574 0014 9B1A     		subs	r3, r3, r2
 575 0016 0B44     		add	r3, r3, r1
 576 0018 0361     		str	r3, [r0, #16]
 577              	.L60:
 433:source\asw/TimingAnalyzer.c ****     }
 434:source\asw/TimingAnalyzer.c ****     return res;
 435:source\asw/TimingAnalyzer.c **** }
 578              		.loc 1 435 0
 579 001a 0020     		movs	r0, #0
 580              	.LVL47:
 581 001c 7047     		bx	lr
 582              		.cfi_endproc
 583              	.LFE118:
 584              		.size	TA_calculateElapsedTime, .-TA_calculateElapsedTime
 585 001e 00BF     		.section	.text.TA_pause,"ax",%progbits
 586              		.align	2
 587              		.global	TA_pause
 588              		.thumb
 589              		.thumb_func
 590              		.type	TA_pause, %function
 591              	TA_pause:
 592              	.LFB114:
 219:source\asw/TimingAnalyzer.c ****     RC_t res = RC_SUCCESS;
 593              		.loc 1 219 0
 594              		.cfi_startproc
 595              		@ args = 0, pretend = 0, frame = 0
 596              		@ frame_needed = 0, uses_anonymous_args = 0
 597              	.LVL48:
 223:source\asw/TimingAnalyzer.c ****     {
 598              		.loc 1 223 0
 599 0000 30B3     		cbz	r0, .L67
 219:source\asw/TimingAnalyzer.c ****     RC_t res = RC_SUCCESS;
 600              		.loc 1 219 0
 601 0002 38B5     		push	{r3, r4, r5, lr}
 602              		.cfi_def_cfa_offset 16
 603              		.cfi_offset 3, -16
 604              		.cfi_offset 4, -12
 605              		.cfi_offset 5, -8
 606              		.cfi_offset 14, -4
 607 0004 0346     		mov	r3, r0
 229:source\asw/TimingAnalyzer.c ****     {
 608              		.loc 1 229 0
 609 0006 4279     		ldrb	r2, [r0, #5]	@ zero_extendqisi2
 610 0008 012A     		cmp	r2, #1
 611 000a 24D1     		bne	.L68
 235:source\asw/TimingAnalyzer.c ****         // SysTick counts in ms
 612              		.loc 1 235 0
 613 000c 0179     		ldrb	r1, [r0, #4]	@ zero_extendqisi2
 614 000e 8A1E     		subs	r2, r1, #2
 615 0010 D2B2     		uxtb	r2, r2
 616 0012 012A     		cmp	r2, #1
 617 0014 03D8     		bhi	.L63
 237:source\asw/TimingAnalyzer.c ****         
 618              		.loc 1 237 0
 619 0016 134A     		ldr	r2, .L71
ARM GAS  C:\Users\agila\AppData\Local\Temp\ccXL9Txd.s 			page 20


 620 0018 1268     		ldr	r2, [r2]
 621 001a C260     		str	r2, [r0, #12]
 622 001c 04E0     		b	.L64
 623              	.L63:
 239:source\asw/TimingAnalyzer.c ****         // DWT cycle counter
 624              		.loc 1 239 0
 625 001e 0129     		cmp	r1, #1
 626 0020 02D8     		bhi	.L64
 241:source\asw/TimingAnalyzer.c ****         
 627              		.loc 1 241 0
 628 0022 114A     		ldr	r2, .L71+4
 629 0024 5268     		ldr	r2, [r2, #4]
 630 0026 C260     		str	r2, [r0, #12]
 631              	.L64:
 632 0028 1C46     		mov	r4, r3
 247:source\asw/TimingAnalyzer.c ****     
 633              		.loc 1 247 0
 634 002a 1846     		mov	r0, r3
 635              	.LVL49:
 636 002c FFF7FEFF 		bl	TA_calculateElapsedTime
 637              	.LVL50:
 638 0030 0546     		mov	r5, r0
 639              	.LVL51:
 250:source\asw/TimingAnalyzer.c ****     {
 640              		.loc 1 250 0
 641 0032 2379     		ldrb	r3, [r4, #4]	@ zero_extendqisi2
 642 0034 032B     		cmp	r3, #3
 643 0036 03D0     		beq	.L65
 250:source\asw/TimingAnalyzer.c ****     {
 644              		.loc 1 250 0 is_stmt 0 discriminator 1
 645 0038 012B     		cmp	r3, #1
 646 003a 01D0     		beq	.L65
 250:source\asw/TimingAnalyzer.c ****     {
 647              		.loc 1 250 0 discriminator 2
 648 003c 042B     		cmp	r3, #4
 649 003e 03D1     		bne	.L66
 650              	.L65:
 252:source\asw/TimingAnalyzer.c ****         {
 651              		.loc 1 252 0 is_stmt 1
 652 0040 6369     		ldr	r3, [r4, #20]
 653 0042 5BB1     		cbz	r3, .L69
 254:source\asw/TimingAnalyzer.c ****         } else {
 654              		.loc 1 254 0
 655 0044 0020     		movs	r0, #0
 656 0046 9847     		blx	r3
 657              	.LVL52:
 658              	.L66:
 261:source\asw/TimingAnalyzer.c ****     
 659              		.loc 1 261 0
 660 0048 0223     		movs	r3, #2
 661 004a 6371     		strb	r3, [r4, #5]
 263:source\asw/TimingAnalyzer.c **** }
 662              		.loc 1 263 0
 663 004c 2846     		mov	r0, r5
 664 004e 38BD     		pop	{r3, r4, r5, pc}
 665              	.LVL53:
 666              	.L67:
ARM GAS  C:\Users\agila\AppData\Local\Temp\ccXL9Txd.s 			page 21


 667              		.cfi_def_cfa_offset 0
 668              		.cfi_restore 3
 669              		.cfi_restore 4
 670              		.cfi_restore 5
 671              		.cfi_restore 14
 225:source\asw/TimingAnalyzer.c ****     }
 672              		.loc 1 225 0
 673 0050 6FF00100 		mvn	r0, #1
 674              	.LVL54:
 264:source\asw/TimingAnalyzer.c **** 
 675              		.loc 1 264 0
 676 0054 7047     		bx	lr
 677              	.LVL55:
 678              	.L68:
 679              		.cfi_def_cfa_offset 16
 680              		.cfi_offset 3, -16
 681              		.cfi_offset 4, -12
 682              		.cfi_offset 5, -8
 683              		.cfi_offset 14, -4
 231:source\asw/TimingAnalyzer.c ****     }
 684              		.loc 1 231 0
 685 0056 6FF01600 		mvn	r0, #22
 686              	.LVL56:
 687 005a 38BD     		pop	{r3, r4, r5, pc}
 688              	.LVL57:
 689              	.L69:
 256:source\asw/TimingAnalyzer.c ****         }
 690              		.loc 1 256 0
 691 005c 6FF00100 		mvn	r0, #1
 264:source\asw/TimingAnalyzer.c **** 
 692              		.loc 1 264 0
 693 0060 38BD     		pop	{r3, r4, r5, pc}
 694              	.LVL58:
 695              	.L72:
 696 0062 00BF     		.align	2
 697              	.L71:
 698 0064 00000000 		.word	.LANCHOR0
 699 0068 001000E0 		.word	-536866816
 700              		.cfi_endproc
 701              	.LFE114:
 702              		.size	TA_pause, .-TA_pause
 703              		.section	.text.TA_stop,"ax",%progbits
 704              		.align	2
 705              		.global	TA_stop
 706              		.thumb
 707              		.thumb_func
 708              		.type	TA_stop, %function
 709              	TA_stop:
 710              	.LFB116:
 323:source\asw/TimingAnalyzer.c ****     RC_t res = RC_SUCCESS;
 711              		.loc 1 323 0
 712              		.cfi_startproc
 713              		@ args = 0, pretend = 0, frame = 0
 714              		@ frame_needed = 0, uses_anonymous_args = 0
 715              	.LVL59:
 327:source\asw/TimingAnalyzer.c ****     {
 716              		.loc 1 327 0
ARM GAS  C:\Users\agila\AppData\Local\Temp\ccXL9Txd.s 			page 22


 717 0000 40B3     		cbz	r0, .L79
 323:source\asw/TimingAnalyzer.c ****     RC_t res = RC_SUCCESS;
 718              		.loc 1 323 0
 719 0002 38B5     		push	{r3, r4, r5, lr}
 720              		.cfi_def_cfa_offset 16
 721              		.cfi_offset 3, -16
 722              		.cfi_offset 4, -12
 723              		.cfi_offset 5, -8
 724              		.cfi_offset 14, -4
 725 0004 0346     		mov	r3, r0
 333:source\asw/TimingAnalyzer.c ****     {
 726              		.loc 1 333 0
 727 0006 4279     		ldrb	r2, [r0, #5]	@ zero_extendqisi2
 728 0008 013A     		subs	r2, r2, #1
 729 000a D2B2     		uxtb	r2, r2
 730 000c 012A     		cmp	r2, #1
 731 000e 24D8     		bhi	.L80
 339:source\asw/TimingAnalyzer.c ****         // SysTick counts in ms
 732              		.loc 1 339 0
 733 0010 0179     		ldrb	r1, [r0, #4]	@ zero_extendqisi2
 734 0012 8A1E     		subs	r2, r1, #2
 735 0014 D2B2     		uxtb	r2, r2
 736 0016 012A     		cmp	r2, #1
 737 0018 03D8     		bhi	.L75
 341:source\asw/TimingAnalyzer.c ****     } else if (TA_MODE_DWT == me->mode || TA_MODE_DWT_PIN == me->mode) {
 738              		.loc 1 341 0
 739 001a 134A     		ldr	r2, .L83
 740 001c 1268     		ldr	r2, [r2]
 741 001e C260     		str	r2, [r0, #12]
 742 0020 04E0     		b	.L76
 743              	.L75:
 342:source\asw/TimingAnalyzer.c ****         // DWT cycle counter
 744              		.loc 1 342 0
 745 0022 0129     		cmp	r1, #1
 746 0024 02D8     		bhi	.L76
 344:source\asw/TimingAnalyzer.c ****     } else {
 747              		.loc 1 344 0
 748 0026 114A     		ldr	r2, .L83+4
 749 0028 5268     		ldr	r2, [r2, #4]
 750 002a C260     		str	r2, [r0, #12]
 751              	.L76:
 752 002c 1C46     		mov	r4, r3
 349:source\asw/TimingAnalyzer.c ****     
 753              		.loc 1 349 0
 754 002e 1846     		mov	r0, r3
 755              	.LVL60:
 756 0030 FFF7FEFF 		bl	TA_calculateElapsedTime
 757              	.LVL61:
 758 0034 0546     		mov	r5, r0
 759              	.LVL62:
 352:source\asw/TimingAnalyzer.c ****     {
 760              		.loc 1 352 0
 761 0036 2379     		ldrb	r3, [r4, #4]	@ zero_extendqisi2
 762 0038 032B     		cmp	r3, #3
 763 003a 03D0     		beq	.L77
 352:source\asw/TimingAnalyzer.c ****     {
 764              		.loc 1 352 0 is_stmt 0 discriminator 1
ARM GAS  C:\Users\agila\AppData\Local\Temp\ccXL9Txd.s 			page 23


 765 003c 012B     		cmp	r3, #1
 766 003e 01D0     		beq	.L77
 352:source\asw/TimingAnalyzer.c ****     {
 767              		.loc 1 352 0 discriminator 2
 768 0040 042B     		cmp	r3, #4
 769 0042 03D1     		bne	.L78
 770              	.L77:
 354:source\asw/TimingAnalyzer.c ****         {
 771              		.loc 1 354 0 is_stmt 1
 772 0044 6369     		ldr	r3, [r4, #20]
 773 0046 5BB1     		cbz	r3, .L81
 356:source\asw/TimingAnalyzer.c ****         } else {
 774              		.loc 1 356 0
 775 0048 0020     		movs	r0, #0
 776 004a 9847     		blx	r3
 777              	.LVL63:
 778              	.L78:
 363:source\asw/TimingAnalyzer.c ****     
 779              		.loc 1 363 0
 780 004c 0323     		movs	r3, #3
 781 004e 6371     		strb	r3, [r4, #5]
 365:source\asw/TimingAnalyzer.c **** }
 782              		.loc 1 365 0
 783 0050 2846     		mov	r0, r5
 784 0052 38BD     		pop	{r3, r4, r5, pc}
 785              	.LVL64:
 786              	.L79:
 787              		.cfi_def_cfa_offset 0
 788              		.cfi_restore 3
 789              		.cfi_restore 4
 790              		.cfi_restore 5
 791              		.cfi_restore 14
 329:source\asw/TimingAnalyzer.c ****     }
 792              		.loc 1 329 0
 793 0054 6FF00100 		mvn	r0, #1
 794              	.LVL65:
 366:source\asw/TimingAnalyzer.c **** 
 795              		.loc 1 366 0
 796 0058 7047     		bx	lr
 797              	.LVL66:
 798              	.L80:
 799              		.cfi_def_cfa_offset 16
 800              		.cfi_offset 3, -16
 801              		.cfi_offset 4, -12
 802              		.cfi_offset 5, -8
 803              		.cfi_offset 14, -4
 335:source\asw/TimingAnalyzer.c ****     }
 804              		.loc 1 335 0
 805 005a 6FF01600 		mvn	r0, #22
 806              	.LVL67:
 807 005e 38BD     		pop	{r3, r4, r5, pc}
 808              	.LVL68:
 809              	.L81:
 358:source\asw/TimingAnalyzer.c ****         }
 810              		.loc 1 358 0
 811 0060 6FF00100 		mvn	r0, #1
 366:source\asw/TimingAnalyzer.c **** 
ARM GAS  C:\Users\agila\AppData\Local\Temp\ccXL9Txd.s 			page 24


 812              		.loc 1 366 0
 813 0064 38BD     		pop	{r3, r4, r5, pc}
 814              	.LVL69:
 815              	.L84:
 816 0066 00BF     		.align	2
 817              	.L83:
 818 0068 00000000 		.word	.LANCHOR0
 819 006c 001000E0 		.word	-536866816
 820              		.cfi_endproc
 821              	.LFE116:
 822              		.size	TA_stop, .-TA_stop
 823              		.section	.text.TA_getElapsedTimeInMs,"ax",%progbits
 824              		.align	2
 825              		.global	TA_getElapsedTimeInMs
 826              		.thumb
 827              		.thumb_func
 828              		.type	TA_getElapsedTimeInMs, %function
 829              	TA_getElapsedTimeInMs:
 830              	.LFB119:
 436:source\asw/TimingAnalyzer.c **** 
 437:source\asw/TimingAnalyzer.c **** /**
 438:source\asw/TimingAnalyzer.c ****  * Func which returns elapsed time in ms based on SysTick or DWT reading.
 439:source\asw/TimingAnalyzer.c ****  * \param TA_t const *const me      : [IN] struct of Analyzer related parameters
 440:source\asw/TimingAnalyzer.c ****  * \return time_ms an uint32_t variable holding calculated time in ms
 441:source\asw/TimingAnalyzer.c **** */
 442:source\asw/TimingAnalyzer.c **** uint32_t TA_getElapsedTimeInMs(TA_t *const me) // keep time_ms as global to keep the func with RC_t
 443:source\asw/TimingAnalyzer.c **** {
 831              		.loc 1 443 0
 832              		.cfi_startproc
 833              		@ args = 0, pretend = 0, frame = 0
 834              		@ frame_needed = 0, uses_anonymous_args = 0
 835              		@ link register save eliminated.
 836              	.LVL70:
 444:source\asw/TimingAnalyzer.c ****     RC_t res = RC_SUCCESS;
 445:source\asw/TimingAnalyzer.c ****     
 446:source\asw/TimingAnalyzer.c ****     // Calculate the elapsed time in ms
 447:source\asw/TimingAnalyzer.c ****     uint32_t time_ms = me->elapsed_time / BCLK__BUS_CLK__KHZ; 
 837              		.loc 1 447 0
 838 0000 0369     		ldr	r3, [r0, #16]
 839 0002 0248     		ldr	r0, .L86
 840              	.LVL71:
 841 0004 A0FB0330 		umull	r3, r0, r0, r3
 842              	.LVL72:
 448:source\asw/TimingAnalyzer.c **** 
 449:source\asw/TimingAnalyzer.c ****     return time_ms;
 450:source\asw/TimingAnalyzer.c **** }
 843              		.loc 1 450 0
 844 0008 400A     		lsrs	r0, r0, #9
 845              	.LVL73:
 846 000a 7047     		bx	lr
 847              	.L87:
 848              		.align	2
 849              	.L86:
 850 000c F1197605 		.word	91625969
 851              		.cfi_endproc
 852              	.LFE119:
 853              		.size	TA_getElapsedTimeInMs, .-TA_getElapsedTimeInMs
ARM GAS  C:\Users\agila\AppData\Local\Temp\ccXL9Txd.s 			page 25


 854              		.section	.text.TA_printStatus,"ax",%progbits
 855              		.align	2
 856              		.global	TA_printStatus
 857              		.thumb
 858              		.thumb_func
 859              		.type	TA_printStatus, %function
 860              	TA_printStatus:
 861              	.LFB120:
 451:source\asw/TimingAnalyzer.c **** 
 452:source\asw/TimingAnalyzer.c **** /**
 453:source\asw/TimingAnalyzer.c ****  * Func which returns elapsed time based on SysTick or DWT reading.
 454:source\asw/TimingAnalyzer.c ****  * \param TA_t *const me        : [IN] struct of Analyzer related parameters
 455:source\asw/TimingAnalyzer.c ****  * \return RC_SUCCESS when success and RC_ERROR_NULL when the me pointer is null
 456:source\asw/TimingAnalyzer.c **** */
 457:source\asw/TimingAnalyzer.c **** RC_t TA_printStatus(TA_t *const me)
 458:source\asw/TimingAnalyzer.c **** {
 862              		.loc 1 458 0
 863              		.cfi_startproc
 864              		@ args = 0, pretend = 0, frame = 152
 865              		@ frame_needed = 0, uses_anonymous_args = 0
 866              	.LVL74:
 459:source\asw/TimingAnalyzer.c ****     RC_t res = RC_SUCCESS;
 460:source\asw/TimingAnalyzer.c ****     
 461:source\asw/TimingAnalyzer.c ****     // Validate the input
 462:source\asw/TimingAnalyzer.c ****     if (me == NULL_PTR)
 867              		.loc 1 462 0
 868 0000 0028     		cmp	r0, #0
 869 0002 48D0     		beq	.L99
 458:source\asw/TimingAnalyzer.c ****     RC_t res = RC_SUCCESS;
 870              		.loc 1 458 0
 871 0004 70B5     		push	{r4, r5, r6, lr}
 872              		.cfi_def_cfa_offset 16
 873              		.cfi_offset 4, -16
 874              		.cfi_offset 5, -12
 875              		.cfi_offset 6, -8
 876              		.cfi_offset 14, -4
 877 0006 AAB0     		sub	sp, sp, #168
 878              		.cfi_def_cfa_offset 184
 879 0008 0346     		mov	r3, r0
 463:source\asw/TimingAnalyzer.c ****     {
 464:source\asw/TimingAnalyzer.c ****         return RC_ERROR_NULL;
 465:source\asw/TimingAnalyzer.c ****     }
 466:source\asw/TimingAnalyzer.c ****     
 467:source\asw/TimingAnalyzer.c ****     // Buffer to assemble string
 468:source\asw/TimingAnalyzer.c ****     char buffer[150]; 
 469:source\asw/TimingAnalyzer.c **** 
 470:source\asw/TimingAnalyzer.c ****     // Format state as string
 471:source\asw/TimingAnalyzer.c ****     const char* strState;
 472:source\asw/TimingAnalyzer.c ****     switch(me->state)
 880              		.loc 1 472 0
 881 000a 4279     		ldrb	r2, [r0, #5]	@ zero_extendqisi2
 882 000c 032A     		cmp	r2, #3
 883 000e 09D8     		bhi	.L90
 884 0010 DFE802F0 		tbb	[pc, r2]
 885              	.L92:
 886 0014 02       		.byte	(.L91-.L92)/2
 887 0015 04       		.byte	(.L93-.L92)/2
ARM GAS  C:\Users\agila\AppData\Local\Temp\ccXL9Txd.s 			page 26


 888 0016 06       		.byte	(.L94-.L92)/2
 889 0017 0A       		.byte	(.L100-.L92)/2
 890              		.p2align 1
 891              	.L91:
 473:source\asw/TimingAnalyzer.c ****     {
 474:source\asw/TimingAnalyzer.c ****         case TA_STATE_IDLE:
 475:source\asw/TimingAnalyzer.c ****             strState = "IDLE"; 
 892              		.loc 1 475 0
 893 0018 214A     		ldr	r2, .L103
 894 001a 06E0     		b	.L95
 895              	.L93:
 896              	.LVL75:
 476:source\asw/TimingAnalyzer.c ****             break;
 477:source\asw/TimingAnalyzer.c ****         case TA_STATE_STOPPED: 
 478:source\asw/TimingAnalyzer.c ****             strState = "STOPPED"; 
 479:source\asw/TimingAnalyzer.c ****             break;
 480:source\asw/TimingAnalyzer.c ****         case TA_STATE_RUNNING: 
 481:source\asw/TimingAnalyzer.c ****             strState = "RUNNING"; 
 897              		.loc 1 481 0
 898 001c 214A     		ldr	r2, .L103+4
 482:source\asw/TimingAnalyzer.c ****             break;
 899              		.loc 1 482 0
 900 001e 04E0     		b	.L95
 901              	.LVL76:
 902              	.L94:
 483:source\asw/TimingAnalyzer.c ****         case TA_STATE_PAUSED:  
 484:source\asw/TimingAnalyzer.c ****             strState = "PAUSED"; 
 903              		.loc 1 484 0
 904 0020 214A     		ldr	r2, .L103+8
 485:source\asw/TimingAnalyzer.c ****             break;
 905              		.loc 1 485 0
 906 0022 02E0     		b	.L95
 907              	.LVL77:
 908              	.L90:
 486:source\asw/TimingAnalyzer.c ****         default:
 487:source\asw/TimingAnalyzer.c ****             strState = "UNKNOWN"; 
 909              		.loc 1 487 0
 910 0024 214A     		ldr	r2, .L103+12
 488:source\asw/TimingAnalyzer.c ****             break;
 911              		.loc 1 488 0
 912 0026 00E0     		b	.L95
 913              	.LVL78:
 914              	.L100:
 478:source\asw/TimingAnalyzer.c ****             break;
 915              		.loc 1 478 0
 916 0028 214A     		ldr	r2, .L103+16
 917              	.L95:
 918 002a 1846     		mov	r0, r3
 919              	.LVL79:
 489:source\asw/TimingAnalyzer.c ****     }    
 490:source\asw/TimingAnalyzer.c ****     
 491:source\asw/TimingAnalyzer.c ****     // Assemble full status string
 492:source\asw/TimingAnalyzer.c ****     if(me->mode == TA_MODE_DWT || me->mode == TA_MODE_DWT_PIN)
 920              		.loc 1 492 0
 921 002c 1B79     		ldrb	r3, [r3, #4]	@ zero_extendqisi2
 922              	.LVL80:
 923 002e 012B     		cmp	r3, #1
ARM GAS  C:\Users\agila\AppData\Local\Temp\ccXL9Txd.s 			page 27


 924 0030 19D8     		bhi	.L96
 925              	.LBB3:
 493:source\asw/TimingAnalyzer.c ****     {
 494:source\asw/TimingAnalyzer.c ****         uint32_t int_ms, frac_ms, rem_cycles;
 495:source\asw/TimingAnalyzer.c ****         int_ms = me->elapsed_time / BCLK__BUS_CLK__KHZ;
 926              		.loc 1 495 0
 927 0032 0669     		ldr	r6, [r0, #16]
 928 0034 1F49     		ldr	r1, .L103+20
 929 0036 A1FB0634 		umull	r3, r4, r1, r6
 930 003a 640A     		lsrs	r4, r4, #9
 931              	.LVL81:
 496:source\asw/TimingAnalyzer.c ****         rem_cycles = me->elapsed_time % BCLK__BUS_CLK__KHZ;
 932              		.loc 1 496 0
 933 003c 45F6C053 		movw	r3, #24000
 934 0040 03FB1465 		mls	r5, r3, r4, r6
 935              	.LVL82:
 497:source\asw/TimingAnalyzer.c ****         frac_ms = (rem_cycles * TA_SCALE_FACTOR) / BCLK__BUS_CLK__KHZ;
 936              		.loc 1 497 0
 937 0044 1C4B     		ldr	r3, .L103+24
 938 0046 03FB05F3 		mul	r3, r3, r5
 939 004a A1FB0331 		umull	r3, r1, r1, r3
 940 004e 490A     		lsrs	r1, r1, #9
 941              	.LVL83:
 498:source\asw/TimingAnalyzer.c ****         
 499:source\asw/TimingAnalyzer.c ****         snprintf(buffer, sizeof(buffer), "Name: %s | State: %s | Elapsed time: %u.%06ums | Cycles: 
 942              		.loc 1 499 0
 943 0050 0368     		ldr	r3, [r0]
 944 0052 0396     		str	r6, [sp, #12]
 945 0054 0291     		str	r1, [sp, #8]
 946 0056 0194     		str	r4, [sp, #4]
 947 0058 0092     		str	r2, [sp]
 948 005a 184A     		ldr	r2, .L103+28
 949              	.LVL84:
 950 005c 9621     		movs	r1, #150
 951              	.LVL85:
 952 005e 04A8     		add	r0, sp, #16
 953              	.LVL86:
 954 0060 FFF7FEFF 		bl	snprintf
 955              	.LVL87:
 956              	.LBE3:
 957 0064 12E0     		b	.L97
 958              	.LVL88:
 959              	.L96:
 500:source\asw/TimingAnalyzer.c ****              me->name, strState, int_ms, frac_ms, me->elapsed_time);
 501:source\asw/TimingAnalyzer.c ****     } else if(me->mode == TA_MODE_PIN) {
 960              		.loc 1 501 0
 961 0066 042B     		cmp	r3, #4
 962 0068 07D1     		bne	.L98
 502:source\asw/TimingAnalyzer.c ****         snprintf(buffer, sizeof(buffer), "Name: %s | State: %s\r\n", // N10
 963              		.loc 1 502 0
 964 006a 0368     		ldr	r3, [r0]
 965 006c 0092     		str	r2, [sp]
 966 006e 144A     		ldr	r2, .L103+32
 967              	.LVL89:
 968 0070 9621     		movs	r1, #150
 969 0072 04A8     		add	r0, sp, #16
 970              	.LVL90:
ARM GAS  C:\Users\agila\AppData\Local\Temp\ccXL9Txd.s 			page 28


 971 0074 FFF7FEFF 		bl	snprintf
 972              	.LVL91:
 973 0078 08E0     		b	.L97
 974              	.LVL92:
 975              	.L98:
 503:source\asw/TimingAnalyzer.c ****             me->name, strState);
 504:source\asw/TimingAnalyzer.c ****     } else {
 505:source\asw/TimingAnalyzer.c ****         snprintf(buffer, sizeof(buffer), "Name: %s | State: %s | Elapsed time: %lums\r\n",
 976              		.loc 1 505 0
 977 007a 0368     		ldr	r3, [r0]
 978 007c 0169     		ldr	r1, [r0, #16]
 979 007e 0191     		str	r1, [sp, #4]
 980 0080 0092     		str	r2, [sp]
 981 0082 104A     		ldr	r2, .L103+36
 982              	.LVL93:
 983 0084 9621     		movs	r1, #150
 984 0086 04A8     		add	r0, sp, #16
 985              	.LVL94:
 986 0088 FFF7FEFF 		bl	snprintf
 987              	.LVL95:
 988              	.L97:
 506:source\asw/TimingAnalyzer.c ****             me->name, strState, me->elapsed_time);
 507:source\asw/TimingAnalyzer.c ****     }
 508:source\asw/TimingAnalyzer.c **** 
 509:source\asw/TimingAnalyzer.c ****     // Send string to UART
 510:source\asw/TimingAnalyzer.c ****     UART_LOG_PutString(buffer);
 989              		.loc 1 510 0
 990 008c 04A8     		add	r0, sp, #16
 991 008e FFF7FEFF 		bl	UART_LOG_PutString
 992              	.LVL96:
 511:source\asw/TimingAnalyzer.c ****     
 512:source\asw/TimingAnalyzer.c ****     return res;
 993              		.loc 1 512 0
 994 0092 0020     		movs	r0, #0
 995 0094 02E0     		b	.L89
 996              	.LVL97:
 997              	.L99:
 998              		.cfi_def_cfa_offset 0
 999              		.cfi_restore 4
 1000              		.cfi_restore 5
 1001              		.cfi_restore 6
 1002              		.cfi_restore 14
 464:source\asw/TimingAnalyzer.c ****     }
 1003              		.loc 1 464 0
 1004 0096 6FF00100 		mvn	r0, #1
 1005              	.LVL98:
 1006 009a 7047     		bx	lr
 1007              	.L89:
 1008              		.cfi_def_cfa_offset 184
 1009              		.cfi_offset 4, -16
 1010              		.cfi_offset 5, -12
 1011              		.cfi_offset 6, -8
 1012              		.cfi_offset 14, -4
 513:source\asw/TimingAnalyzer.c **** }
 1013              		.loc 1 513 0
 1014 009c 2AB0     		add	sp, sp, #168
 1015              		.cfi_def_cfa_offset 16
ARM GAS  C:\Users\agila\AppData\Local\Temp\ccXL9Txd.s 			page 29


 1016              		@ sp needed
 1017 009e 70BD     		pop	{r4, r5, r6, pc}
 1018              	.L104:
 1019              		.align	2
 1020              	.L103:
 1021 00a0 00000000 		.word	.LC0
 1022 00a4 10000000 		.word	.LC2
 1023 00a8 18000000 		.word	.LC3
 1024 00ac 20000000 		.word	.LC4
 1025 00b0 08000000 		.word	.LC1
 1026 00b4 F1197605 		.word	91625969
 1027 00b8 40420F00 		.word	1000000
 1028 00bc 28000000 		.word	.LC5
 1029 00c0 68000000 		.word	.LC6
 1030 00c4 80000000 		.word	.LC7
 1031              		.cfi_endproc
 1032              	.LFE120:
 1033              		.size	TA_printStatus, .-TA_printStatus
 1034              		.section	.text.TA_printAll,"ax",%progbits
 1035              		.align	2
 1036              		.global	TA_printAll
 1037              		.thumb
 1038              		.thumb_func
 1039              		.type	TA_printAll, %function
 1040              	TA_printAll:
 1041              	.LFB121:
 514:source\asw/TimingAnalyzer.c **** 
 515:source\asw/TimingAnalyzer.c **** /**
 516:source\asw/TimingAnalyzer.c ****  * Func to print all the available Analysers
 517:source\asw/TimingAnalyzer.c ****  * \param None
 518:source\asw/TimingAnalyzer.c ****  * \return RC_SUCCESS when success and RC_ERROR_BUFFER_EMTPY when analyzer array is empty
 519:source\asw/TimingAnalyzer.c **** */
 520:source\asw/TimingAnalyzer.c **** RC_t TA_printAll(void)
 521:source\asw/TimingAnalyzer.c **** {
 1042              		.loc 1 521 0
 1043              		.cfi_startproc
 1044              		@ args = 0, pretend = 0, frame = 0
 1045              		@ frame_needed = 0, uses_anonymous_args = 0
 1046 0000 10B5     		push	{r4, lr}
 1047              		.cfi_def_cfa_offset 8
 1048              		.cfi_offset 4, -8
 1049              		.cfi_offset 14, -4
 1050              	.LVL99:
 1051              	.LBB4:
 522:source\asw/TimingAnalyzer.c ****     RC_t res = RC_SUCCESS;
 523:source\asw/TimingAnalyzer.c ****     
 524:source\asw/TimingAnalyzer.c ****     boolean_t anyActive = FALSE;
 525:source\asw/TimingAnalyzer.c ****     
 526:source\asw/TimingAnalyzer.c ****     for (uint8_t i = 0; i < ta_g_analyzer_count; i++)
 1052              		.loc 1 526 0
 1053 0002 0024     		movs	r4, #0
 1054              	.LBE4:
 524:source\asw/TimingAnalyzer.c ****     
 1055              		.loc 1 524 0
 1056 0004 2246     		mov	r2, r4
 1057              	.LBB8:
 1058              		.loc 1 526 0
ARM GAS  C:\Users\agila\AppData\Local\Temp\ccXL9Txd.s 			page 30


 1059 0006 0BE0     		b	.L106
 1060              	.LVL100:
 1061              	.L108:
 1062              	.LBB5:
 527:source\asw/TimingAnalyzer.c ****     {
 528:source\asw/TimingAnalyzer.c ****         TA_t *me = ta_g_analyzers[i];
 1063              		.loc 1 528 0
 1064 0008 0F4B     		ldr	r3, .L113
 1065 000a 03EB8403 		add	r3, r3, r4, lsl #2
 1066 000e 9868     		ldr	r0, [r3, #8]
 1067              	.LVL101:
 529:source\asw/TimingAnalyzer.c ****         if ((me != NULL_PTR) && me->state)
 1068              		.loc 1 529 0
 1069 0010 88B1     		cbz	r0, .L109
 1070              		.loc 1 529 0 is_stmt 0 discriminator 1
 1071 0012 4379     		ldrb	r3, [r0, #5]	@ zero_extendqisi2
 1072 0014 93B1     		cbz	r3, .L110
 1073              	.LVL102:
 530:source\asw/TimingAnalyzer.c ****         {
 531:source\asw/TimingAnalyzer.c ****             anyActive = TRUE;
 532:source\asw/TimingAnalyzer.c ****             TA_printStatus(me);
 1074              		.loc 1 532 0 is_stmt 1
 1075 0016 FFF7FEFF 		bl	TA_printStatus
 1076              	.LVL103:
 1077              	.LBE5:
 526:source\asw/TimingAnalyzer.c ****     {
 1078              		.loc 1 526 0
 1079 001a 0134     		adds	r4, r4, #1
 1080              	.LVL104:
 1081 001c E4B2     		uxtb	r4, r4
 1082              	.LVL105:
 1083              	.LBB6:
 531:source\asw/TimingAnalyzer.c ****             TA_printStatus(me);
 1084              		.loc 1 531 0
 1085 001e 0122     		movs	r2, #1
 1086              	.LVL106:
 1087              	.L106:
 1088              	.LBE6:
 526:source\asw/TimingAnalyzer.c ****     {
 1089              		.loc 1 526 0 discriminator 1
 1090 0020 094B     		ldr	r3, .L113
 1091 0022 1B79     		ldrb	r3, [r3, #4]	@ zero_extendqisi2
 1092 0024 9C42     		cmp	r4, r3
 1093 0026 EFD3     		bcc	.L108
 1094              	.LBE8:
 533:source\asw/TimingAnalyzer.c ****         } else {
 534:source\asw/TimingAnalyzer.c ****             return RC_ERROR_NULL;
 535:source\asw/TimingAnalyzer.c ****         }
 536:source\asw/TimingAnalyzer.c ****     }
 537:source\asw/TimingAnalyzer.c ****     
 538:source\asw/TimingAnalyzer.c ****     // MISRA Rule 13.7 : Boolean expressions should be explicit. (Use to avoid ambiguity.)
 539:source\asw/TimingAnalyzer.c ****     if (anyActive == FALSE)
 1095              		.loc 1 539 0
 1096 0028 5AB9     		cbnz	r2, .L111
 540:source\asw/TimingAnalyzer.c ****     {
 541:source\asw/TimingAnalyzer.c ****         // Array is empty
 542:source\asw/TimingAnalyzer.c ****         UART_LOG_PutString("\r\nInfo: No analyzer instance available to print.\r\n");
ARM GAS  C:\Users\agila\AppData\Local\Temp\ccXL9Txd.s 			page 31


 1097              		.loc 1 542 0
 1098 002a 0848     		ldr	r0, .L113+4
 1099 002c FFF7FEFF 		bl	UART_LOG_PutString
 1100              	.LVL107:
 543:source\asw/TimingAnalyzer.c ****         
 544:source\asw/TimingAnalyzer.c ****         res = RC_ERROR_BUFFER_EMTPY;
 1101              		.loc 1 544 0
 1102 0030 6FF00800 		mvn	r0, #8
 1103 0034 10BD     		pop	{r4, pc}
 1104              	.LVL108:
 1105              	.L109:
 1106              	.LBB9:
 1107              	.LBB7:
 534:source\asw/TimingAnalyzer.c ****         }
 1108              		.loc 1 534 0
 1109 0036 6FF00100 		mvn	r0, #1
 1110              	.LVL109:
 1111 003a 10BD     		pop	{r4, pc}
 1112              	.LVL110:
 1113              	.L110:
 1114 003c 6FF00100 		mvn	r0, #1
 1115              	.LVL111:
 1116 0040 10BD     		pop	{r4, pc}
 1117              	.LVL112:
 1118              	.L111:
 1119              	.LBE7:
 1120              	.LBE9:
 522:source\asw/TimingAnalyzer.c ****     
 1121              		.loc 1 522 0
 1122 0042 0020     		movs	r0, #0
 545:source\asw/TimingAnalyzer.c ****     }  
 546:source\asw/TimingAnalyzer.c ****     return res;
 547:source\asw/TimingAnalyzer.c **** }
 1123              		.loc 1 547 0
 1124 0044 10BD     		pop	{r4, pc}
 1125              	.LVL113:
 1126              	.L114:
 1127 0046 00BF     		.align	2
 1128              	.L113:
 1129 0048 00000000 		.word	.LANCHOR0
 1130 004c B0000000 		.word	.LC8
 1131              		.cfi_endproc
 1132              	.LFE121:
 1133              		.size	TA_printAll, .-TA_printAll
 1134              		.section	.text.SysTick_Handler,"ax",%progbits
 1135              		.align	2
 1136              		.global	SysTick_Handler
 1137              		.thumb
 1138              		.thumb_func
 1139              		.type	SysTick_Handler, %function
 1140              	SysTick_Handler:
 1141              	.LFB122:
 548:source\asw/TimingAnalyzer.c **** 
 549:source\asw/TimingAnalyzer.c **** /**
 550:source\asw/TimingAnalyzer.c ****  * Func Systick Handler - used to increment the milliseconds counter each millisecond
 551:source\asw/TimingAnalyzer.c ****  * \param None
 552:source\asw/TimingAnalyzer.c ****  * \return None
ARM GAS  C:\Users\agila\AppData\Local\Temp\ccXL9Txd.s 			page 32


 553:source\asw/TimingAnalyzer.c **** */
 554:source\asw/TimingAnalyzer.c **** void SysTick_Handler(void)
 555:source\asw/TimingAnalyzer.c **** {
 1142              		.loc 1 555 0
 1143              		.cfi_startproc
 1144              		@ args = 0, pretend = 0, frame = 0
 1145              		@ frame_needed = 0, uses_anonymous_args = 0
 1146              		@ link register save eliminated.
 556:source\asw/TimingAnalyzer.c ****     ta_g_system_ms++;
 1147              		.loc 1 556 0
 1148 0000 024A     		ldr	r2, .L116
 1149 0002 1368     		ldr	r3, [r2]
 1150 0004 0133     		adds	r3, r3, #1
 1151 0006 1360     		str	r3, [r2]
 1152 0008 7047     		bx	lr
 1153              	.L117:
 1154 000a 00BF     		.align	2
 1155              	.L116:
 1156 000c 00000000 		.word	.LANCHOR0
 1157              		.cfi_endproc
 1158              	.LFE122:
 1159              		.size	SysTick_Handler, .-SysTick_Handler
 1160              		.comm	Pin_t,1,1
 1161              		.section	.rodata.str1.4,"aMS",%progbits,1
 1162              		.align	2
 1163              	.LC0:
 1164 0000 49444C45 		.ascii	"IDLE\000"
 1164      00
 1165 0005 000000   		.space	3
 1166              	.LC1:
 1167 0008 53544F50 		.ascii	"STOPPED\000"
 1167      50454400 
 1168              	.LC2:
 1169 0010 52554E4E 		.ascii	"RUNNING\000"
 1169      494E4700 
 1170              	.LC3:
 1171 0018 50415553 		.ascii	"PAUSED\000"
 1171      454400
 1172 001f 00       		.space	1
 1173              	.LC4:
 1174 0020 554E4B4E 		.ascii	"UNKNOWN\000"
 1174      4F574E00 
 1175              	.LC5:
 1176 0028 4E616D65 		.ascii	"Name: %s | State: %s | Elapsed time: %u.%06ums | Cy"
 1176      3A202573 
 1176      207C2053 
 1176      74617465 
 1176      3A202573 
 1177 005b 636C6573 		.ascii	"cles: %u\015\012\000"
 1177      3A202575 
 1177      0D0A00
 1178 0066 0000     		.space	2
 1179              	.LC6:
 1180 0068 4E616D65 		.ascii	"Name: %s | State: %s\015\012\000"
 1180      3A202573 
 1180      207C2053 
 1180      74617465 
ARM GAS  C:\Users\agila\AppData\Local\Temp\ccXL9Txd.s 			page 33


 1180      3A202573 
 1181 007f 00       		.space	1
 1182              	.LC7:
 1183 0080 4E616D65 		.ascii	"Name: %s | State: %s | Elapsed time: %lums\015\012\000"
 1183      3A202573 
 1183      207C2053 
 1183      74617465 
 1183      3A202573 
 1184 00ad 000000   		.space	3
 1185              	.LC8:
 1186 00b0 0D0A496E 		.ascii	"\015\012Info: No analyzer instance available to pri"
 1186      666F3A20 
 1186      4E6F2061 
 1186      6E616C79 
 1186      7A657220 
 1187 00dd 6E742E0D 		.ascii	"nt.\015\012\000"
 1187      0A00
 1188              		.bss
 1189              		.align	2
 1190              		.set	.LANCHOR0,. + 0
 1191              		.type	ta_g_system_ms, %object
 1192              		.size	ta_g_system_ms, 4
 1193              	ta_g_system_ms:
 1194 0000 00000000 		.space	4
 1195              		.type	ta_g_analyzer_count, %object
 1196              		.size	ta_g_analyzer_count, 1
 1197              	ta_g_analyzer_count:
 1198 0004 00       		.space	1
 1199 0005 000000   		.space	3
 1200              		.type	ta_g_analyzers, %object
 1201              		.size	ta_g_analyzers, 40
 1202              	ta_g_analyzers:
 1203 0008 00000000 		.space	40
 1203      00000000 
 1203      00000000 
 1203      00000000 
 1203      00000000 
 1204              		.text
 1205              	.Letext0:
 1206              		.file 2 "c:\\h_da softwares & projects\\psoc creator\\4.4\\psoc creator\\import\\gnu\\arm\\5.4.1\\
 1207              		.file 3 "c:\\h_da softwares & projects\\psoc creator\\4.4\\psoc creator\\import\\gnu\\arm\\5.4.1\\
 1208              		.file 4 "Generated_Source\\PSoC5/ErikaOS_common_ee_types.inc"
 1209              		.file 5 "Generated_Source\\PSoC5/ErikaOS_cortex_mx_ee_cpu.inc"
 1210              		.file 6 "Generated_Source\\PSoC5/core_cm3.h"
 1211              		.file 7 ".\\source\\bsw/global.h"
 1212              		.file 8 "source\\asw\\TimingAnalyzer.h"
 1213              		.file 9 ".\\source\\bsw\\LabBoard/pins.h"
 1214              		.file 10 "Generated_Source\\PSoC5/ErikaOS_ee_oo_intfunc.inc"
 1215              		.file 11 "Generated_Source\\PSoC5/ErikaOS_cortex_mx_ee_context.inc"
 1216              		.file 12 "Generated_Source\\PSoC5/ErikaOS_common_ee_primitives.inc"
 1217              		.file 13 "c:\\h_da softwares & projects\\psoc creator\\4.4\\psoc creator\\import\\gnu\\arm\\5.4.1\
 1218              		.file 14 "Generated_Source\\PSoC5/UART_LOG.h"